
/home/pwwp/Desktop/ICS/csapp_lab/bomb5/bomb:     file format elf32-i386


Disassembly of section .interp:

08048114 <.interp>:
 8048114:	2f                   	das    
 8048115:	6c                   	insb   (%dx),%es:(%edi)
 8048116:	69 62 2f 6c 64 2d 6c 	imul   $0x6c2d646c,0x2f(%edx),%esp
 804811d:	69 6e 75 78 2e 73 6f 	imul   $0x6f732e78,0x75(%esi),%ebp
 8048124:	2e 32 00             	xor    %cs:(%eax),%al

Disassembly of section .note.ABI-tag:

08048128 <.note.ABI-tag>:
 8048128:	04 00                	add    $0x0,%al
 804812a:	00 00                	add    %al,(%eax)
 804812c:	10 00                	adc    %al,(%eax)
 804812e:	00 00                	add    %al,(%eax)
 8048130:	01 00                	add    %eax,(%eax)
 8048132:	00 00                	add    %al,(%eax)
 8048134:	47                   	inc    %edi
 8048135:	4e                   	dec    %esi
 8048136:	55                   	push   %ebp
 8048137:	00 00                	add    %al,(%eax)
 8048139:	00 00                	add    %al,(%eax)
 804813b:	00 02                	add    %al,(%edx)
 804813d:	00 00                	add    %al,(%eax)
 804813f:	00 06                	add    %al,(%esi)
 8048141:	00 00                	add    %al,(%eax)
 8048143:	00 00                	add    %al,(%eax)
 8048145:	00 00                	add    %al,(%eax)
	...

Disassembly of section .hash:

08048148 <.hash>:
 8048148:	25 00 00 00 25       	and    $0x25000000,%eax
 804814d:	00 00                	add    %al,(%eax)
 804814f:	00 21                	add    %ah,(%ecx)
 8048151:	00 00                	add    %al,(%eax)
 8048153:	00 09                	add    %cl,(%ecx)
 8048155:	00 00                	add    %al,(%eax)
 8048157:	00 00                	add    %al,(%eax)
 8048159:	00 00                	add    %al,(%eax)
 804815b:	00 14 00             	add    %dl,(%eax,%eax,1)
 804815e:	00 00                	add    %al,(%eax)
 8048160:	07                   	pop    %es
	...
 804816d:	00 00                	add    %al,(%eax)
 804816f:	00 23                	add    %ah,(%ebx)
 8048171:	00 00                	add    %al,(%eax)
 8048173:	00 00                	add    %al,(%eax)
 8048175:	00 00                	add    %al,(%eax)
 8048177:	00 20                	add    %ah,(%eax)
	...
 8048185:	00 00                	add    %al,(%eax)
 8048187:	00 22                	add    %ah,(%edx)
 8048189:	00 00                	add    %al,(%eax)
 804818b:	00 1f                	add    %bl,(%edi)
 804818d:	00 00                	add    %al,(%eax)
 804818f:	00 05 00 00 00 00    	add    %al,0x0
 8048195:	00 00                	add    %al,(%eax)
 8048197:	00 19                	add    %bl,(%ecx)
 8048199:	00 00                	add    %al,(%eax)
 804819b:	00 1e                	add    %bl,(%esi)
 804819d:	00 00                	add    %al,(%eax)
 804819f:	00 00                	add    %al,(%eax)
 80481a1:	00 00                	add    %al,(%eax)
 80481a3:	00 24 00             	add    %ah,(%eax,%eax,1)
 80481a6:	00 00                	add    %al,(%eax)
 80481a8:	00 00                	add    %al,(%eax)
 80481aa:	00 00                	add    %al,(%eax)
 80481ac:	16                   	push   %ss
 80481ad:	00 00                	add    %al,(%eax)
 80481af:	00 0e                	add    %cl,(%esi)
	...
 80481b9:	00 00                	add    %al,(%eax)
 80481bb:	00 06                	add    %al,(%esi)
 80481bd:	00 00                	add    %al,(%eax)
 80481bf:	00 1a                	add    %bl,(%edx)
 80481c1:	00 00                	add    %al,(%eax)
 80481c3:	00 17                	add    %dl,(%edi)
 80481c5:	00 00                	add    %al,(%eax)
 80481c7:	00 10                	add    %dl,(%eax)
 80481c9:	00 00                	add    %al,(%eax)
 80481cb:	00 00                	add    %al,(%eax)
 80481cd:	00 00                	add    %al,(%eax)
 80481cf:	00 0f                	add    %cl,(%edi)
 80481d1:	00 00                	add    %al,(%eax)
 80481d3:	00 02                	add    %al,(%edx)
	...
 80481ed:	00 00                	add    %al,(%eax)
 80481ef:	00 01                	add    %al,(%ecx)
 80481f1:	00 00                	add    %al,(%eax)
 80481f3:	00 00                	add    %al,(%eax)
 80481f5:	00 00                	add    %al,(%eax)
 80481f7:	00 03                	add    %al,(%ebx)
	...
 8048225:	00 00                	add    %al,(%eax)
 8048227:	00 0d 00 00 00 00    	add    %cl,0x0
 804822d:	00 00                	add    %al,(%eax)
 804822f:	00 12                	add    %dl,(%edx)
	...
 8048239:	00 00                	add    %al,(%eax)
 804823b:	00 08                	add    %cl,(%eax)
 804823d:	00 00                	add    %al,(%eax)
 804823f:	00 0b                	add    %cl,(%ebx)
 8048241:	00 00                	add    %al,(%eax)
 8048243:	00 00                	add    %al,(%eax)
 8048245:	00 00                	add    %al,(%eax)
 8048247:	00 0a                	add    %cl,(%edx)
 8048249:	00 00                	add    %al,(%eax)
 804824b:	00 00                	add    %al,(%eax)
 804824d:	00 00                	add    %al,(%eax)
 804824f:	00 11                	add    %dl,(%ecx)
 8048251:	00 00                	add    %al,(%eax)
 8048253:	00 04 00             	add    %al,(%eax,%eax,1)
 8048256:	00 00                	add    %al,(%eax)
 8048258:	18 00                	sbb    %al,(%eax)
 804825a:	00 00                	add    %al,(%eax)
 804825c:	1c 00                	sbb    $0x0,%al
 804825e:	00 00                	add    %al,(%eax)
 8048260:	13 00                	adc    (%eax),%eax
 8048262:	00 00                	add    %al,(%eax)
 8048264:	0c 00                	or     $0x0,%al
 8048266:	00 00                	add    %al,(%eax)
 8048268:	15 00 00 00 1b       	adc    $0x1b000000,%eax
 804826d:	00 00                	add    %al,(%eax)
 804826f:	00 00                	add    %al,(%eax)
 8048271:	00 00                	add    %al,(%eax)
 8048273:	00                   	.byte 0x0
 8048274:	1d                   	.byte 0x1d
 8048275:	00 00                	add    %al,(%eax)
	...

Disassembly of section .dynsym:

08048278 <.dynsym>:
	...
 8048288:	e4 00                	in     $0x0,%al
 804828a:	00 00                	add    %al,(%eax)
 804828c:	00 00                	add    %al,(%eax)
 804828e:	00 00                	add    %al,(%eax)
 8048290:	6b 00 00             	imul   $0x0,(%eax),%eax
 8048293:	00 12                	add    %dl,(%edx)
 8048295:	00 00                	add    %al,(%eax)
 8048297:	00 90 00 00 00 00    	add    %dl,0x0(%eax)
 804829d:	00 00                	add    %al,(%eax)
 804829f:	00 24 00             	add    %ah,(%eax,%eax,1)
 80482a2:	00 00                	add    %al,(%eax)
 80482a4:	12 00                	adc    (%eax),%al
 80482a6:	00 00                	add    %al,(%eax)
 80482a8:	4f                   	dec    %edi
 80482a9:	00 00                	add    %al,(%eax)
 80482ab:	00 00                	add    %al,(%eax)
 80482ad:	00 00                	add    %al,(%eax)
 80482af:	00 a2 00 00 00 12    	add    %ah,0x12000000(%edx)
 80482b5:	00 00                	add    %al,(%eax)
 80482b7:	00 30                	add    %dh,(%eax)
 80482b9:	00 00                	add    %al,(%eax)
 80482bb:	00 00                	add    %al,(%eax)
 80482bd:	00 00                	add    %al,(%eax)
 80482bf:	00 ef                	add    %ch,%bh
 80482c1:	00 00                	add    %al,(%eax)
 80482c3:	00 12                	add    %dl,(%edx)
 80482c5:	00 00                	add    %al,(%eax)
 80482c7:	00 9e 00 00 00 00    	add    %bl,0x0(%esi)
 80482cd:	00 00                	add    %al,(%eax)
 80482cf:	00 d6                	add    %dl,%dh
 80482d1:	00 00                	add    %al,(%eax)
 80482d3:	00 12                	add    %dl,(%edx)
 80482d5:	00 00                	add    %al,(%eax)
 80482d7:	00 70 00             	add    %dh,0x0(%eax)
 80482da:	00 00                	add    %al,(%eax)
 80482dc:	00 00                	add    %al,(%eax)
 80482de:	00 00                	add    %al,(%eax)
 80482e0:	fb                   	sti    
 80482e1:	00 00                	add    %al,(%eax)
 80482e3:	00 12                	add    %dl,(%edx)
 80482e5:	00 00                	add    %al,(%eax)
 80482e7:	00 b0 00 00 00 00    	add    %dh,0x0(%eax)
 80482ed:	00 00                	add    %al,(%eax)
 80482ef:	00 b0 00 00 00 12    	add    %dh,0x12000000(%eax)
 80482f5:	00 00                	add    %al,(%eax)
 80482f7:	00 05 01 00 00 00    	add    %al,0x1
 80482fd:	00 00                	add    %al,(%eax)
 80482ff:	00 a5 00 00 00 12    	add    %ah,0x12000000(%ebp)
 8048305:	00 00                	add    %al,(%eax)
 8048307:	00 5c 00 00          	add    %bl,0x0(%eax,%eax,1)
 804830b:	00 00                	add    %al,(%eax)
 804830d:	00 00                	add    %al,(%eax)
 804830f:	00 7d 00             	add    %bh,0x0(%ebp)
 8048312:	00 00                	add    %al,(%eax)
 8048314:	12 00                	adc    (%eax),%al
 8048316:	00 00                	add    %al,(%eax)
 8048318:	57                   	push   %edi
 8048319:	00 00                	add    %al,(%eax)
 804831b:	00 00                	add    %al,(%eax)
 804831d:	00 00                	add    %al,(%eax)
 804831f:	00 9a 01 00 00 12    	add    %bl,0x12000001(%edx)
 8048325:	00 00                	add    %al,(%eax)
 8048327:	00 21                	add    %ah,(%ecx)
 8048329:	00 00                	add    %al,(%eax)
 804832b:	00 00                	add    %al,(%eax)
 804832d:	a8 04                	test   $0x4,%al
 804832f:	08 04 00             	or     %al,(%eax,%eax,1)
 8048332:	00 00                	add    %al,(%eax)
 8048334:	11 00                	adc    %eax,(%eax)
 8048336:	17                   	pop    %ss
 8048337:	00 49 00             	add    %cl,0x0(%ecx)
 804833a:	00 00                	add    %al,(%eax)
 804833c:	00 00                	add    %al,(%eax)
 804833e:	00 00                	add    %al,(%eax)
 8048340:	7a 01                	jp     8048343 <_init-0x4a1>
 8048342:	00 00                	add    %al,(%eax)
 8048344:	12 00                	adc    (%eax),%al
 8048346:	00 00                	add    %al,(%eax)
 8048348:	63 00                	arpl   %ax,(%eax)
 804834a:	00 00                	add    %al,(%eax)
 804834c:	00 00                	add    %al,(%eax)
 804834e:	00 00                	add    %al,(%eax)
 8048350:	95                   	xchg   %eax,%ebp
 8048351:	02 00                	add    (%eax),%al
 8048353:	00 12                	add    %dl,(%edx)
 8048355:	00 00                	add    %al,(%eax)
 8048357:	00 37                	add    %dh,(%edi)
 8048359:	00 00                	add    %al,(%eax)
 804835b:	00 00                	add    %al,(%eax)
 804835d:	00 00                	add    %al,(%eax)
 804835f:	00 4c 00 00          	add    %cl,0x0(%eax,%eax,1)
 8048363:	00 12                	add    %dl,(%edx)
 8048365:	00 00                	add    %al,(%eax)
 8048367:	00 ea                	add    %ch,%dl
 8048369:	00 00                	add    %al,(%eax)
 804836b:	00 00                	add    %al,(%eax)
 804836d:	00 00                	add    %al,(%eax)
 804836f:	00 a5 00 00 00 12    	add    %ah,0x12000000(%ebp)
 8048375:	00 00                	add    %al,(%eax)
 8048377:	00 77 00             	add    %dh,0x0(%edi)
 804837a:	00 00                	add    %al,(%eax)
 804837c:	00 00                	add    %al,(%eax)
 804837e:	00 00                	add    %al,(%eax)
 8048380:	46                   	inc    %esi
 8048381:	00 00                	add    %al,(%eax)
 8048383:	00 12                	add    %dl,(%edx)
 8048385:	00 00                	add    %al,(%eax)
 8048387:	00 26                	add    %ah,(%esi)
 8048389:	01 00                	add    %eax,(%eax)
 804838b:	00 00                	add    %al,(%eax)
 804838d:	00 00                	add    %al,(%eax)
 804838f:	00 9f 01 00 00 12    	add    %bl,0x12000001(%edi)
 8048395:	00 00                	add    %al,(%eax)
 8048397:	00 91 00 00 00 00    	add    %dl,0x0(%ecx)
 804839d:	00 00                	add    %al,(%eax)
 804839f:	00 39                	add    %bh,(%ecx)
 80483a1:	00 00                	add    %al,(%eax)
 80483a3:	00 12                	add    %dl,(%edx)
 80483a5:	00 00                	add    %al,(%eax)
 80483a7:	00 e3                	add    %ah,%bl
 80483a9:	00 00                	add    %al,(%eax)
 80483ab:	00 00                	add    %al,(%eax)
 80483ad:	00 00                	add    %al,(%eax)
 80483af:	00 dd                	add    %bl,%ch
 80483b1:	01 00                	add    %eax,(%eax)
 80483b3:	00 12                	add    %dl,(%edx)
 80483b5:	00 00                	add    %al,(%eax)
 80483b7:	00 cf                	add    %cl,%bh
 80483b9:	00 00                	add    %al,(%eax)
 80483bb:	00 00                	add    %al,(%eax)
 80483bd:	00 00                	add    %al,(%eax)
 80483bf:	00 9f 00 00 00 12    	add    %bl,0x12000000(%edi)
 80483c5:	00 00                	add    %al,(%eax)
 80483c7:	00 c1                	add    %al,%cl
 80483c9:	00 00                	add    %al,(%eax)
 80483cb:	00 00                	add    %al,(%eax)
 80483cd:	00 00                	add    %al,(%eax)
 80483cf:	00 b5 01 00 00 12    	add    %dh,0x12000001(%ebp)
 80483d5:	00 00                	add    %al,(%eax)
 80483d7:	00 a5 00 00 00 00    	add    %ah,0x0(%ebp)
 80483dd:	00 00                	add    %al,(%eax)
 80483df:	00 70 00             	add    %dh,0x0(%eax)
 80483e2:	00 00                	add    %al,(%eax)
 80483e4:	12 00                	adc    (%eax),%al
 80483e6:	00 00                	add    %al,(%eax)
 80483e8:	0c 01                	or     $0x1,%al
 80483ea:	00 00                	add    %al,(%eax)
 80483ec:	00 00                	add    %al,(%eax)
 80483ee:	00 00                	add    %al,(%eax)
 80483f0:	f4                   	hlt    
 80483f1:	00 00                	add    %al,(%eax)
 80483f3:	00 12                	add    %dl,(%edx)
 80483f5:	00 00                	add    %al,(%eax)
 80483f7:	00 b6 00 00 00 00    	add    %dh,0x0(%esi)
 80483fd:	00 00                	add    %al,(%eax)
 80483ff:	00 34 00             	add    %dh,(%eax,%eax,1)
 8048402:	00 00                	add    %al,(%eax)
 8048404:	12 00                	adc    (%eax),%al
 8048406:	00 00                	add    %al,(%eax)
 8048408:	28 00                	sub    %al,(%eax)
 804840a:	00 00                	add    %al,(%eax)
 804840c:	00 00                	add    %al,(%eax)
 804840e:	00 00                	add    %al,(%eax)
 8048410:	72 00                	jb     8048412 <_init-0x3d2>
 8048412:	00 00                	add    %al,(%eax)
 8048414:	12 00                	adc    (%eax),%al
 8048416:	00 00                	add    %al,(%eax)
 8048418:	98                   	cwtl   
 8048419:	00 00                	add    %al,(%eax)
 804841b:	00 04 a8             	add    %al,(%eax,%ebp,4)
 804841e:	04 08                	add    $0x8,%al
 8048420:	04 00                	add    $0x0,%al
 8048422:	00 00                	add    %al,(%eax)
 8048424:	11 00                	adc    %eax,(%eax)
 8048426:	17                   	pop    %ss
 8048427:	00 11                	add    %dl,(%ecx)
 8048429:	01 00                	add    %eax,(%eax)
 804842b:	00 00                	add    %al,(%eax)
 804842d:	00 00                	add    %al,(%eax)
 804842f:	00 32                	add    %dh,(%edx)
 8048431:	00 00                	add    %al,(%eax)
 8048433:	00 12                	add    %dl,(%edx)
 8048435:	00 00                	add    %al,(%eax)
 8048437:	00 bd 00 00 00 00    	add    %bh,0x0(%ebp)
 804843d:	00 00                	add    %al,(%eax)
 804843f:	00 3a                	add    %bh,(%edx)
 8048441:	00 00                	add    %al,(%eax)
 8048443:	00 12                	add    %dl,(%edx)
 8048445:	00 00                	add    %al,(%eax)
 8048447:	00 17                	add    %dl,(%edi)
 8048449:	01 00                	add    %eax,(%eax)
 804844b:	00 a4 98 04 08 04 00 	add    %ah,0x40804(%eax,%ebx,4)
 8048452:	00 00                	add    %al,(%eax)
 8048454:	11 00                	adc    %eax,(%eax)
 8048456:	0e                   	push   %cs
 8048457:	00 db                	add    %bl,%bl
 8048459:	00 00                	add    %al,(%eax)
 804845b:	00 00                	add    %al,(%eax)
 804845d:	00 00                	add    %al,(%eax)
 804845f:	00 34 00             	add    %dh,(%eax,%eax,1)
 8048462:	00 00                	add    %al,(%eax)
 8048464:	12 00                	adc    (%eax),%al
 8048466:	00 00                	add    %al,(%eax)
 8048468:	fe 00                	incb   (%eax)
 804846a:	00 00                	add    %al,(%eax)
 804846c:	00 00                	add    %al,(%eax)
 804846e:	00 00                	add    %al,(%eax)
 8048470:	60                   	pusha  
 8048471:	01 00                	add    %eax,(%eax)
 8048473:	00 12                	add    %dl,(%edx)
 8048475:	00 00                	add    %al,(%eax)
 8048477:	00 69 00             	add    %ch,0x0(%ecx)
 804847a:	00 00                	add    %al,(%eax)
 804847c:	00 00                	add    %al,(%eax)
 804847e:	00 00                	add    %al,(%eax)
 8048480:	3d 00 00 00 12       	cmp    $0x12000000,%eax
 8048485:	00 00                	add    %al,(%eax)
 8048487:	00 f0                	add    %dh,%al
 8048489:	00 00                	add    %al,(%eax)
 804848b:	00 00                	add    %al,(%eax)
 804848d:	00 00                	add    %al,(%eax)
 804848f:	00 40 00             	add    %al,0x0(%eax)
 8048492:	00 00                	add    %al,(%eax)
 8048494:	12 00                	adc    (%eax),%al
 8048496:	00 00                	add    %al,(%eax)
 8048498:	88 00                	mov    %al,(%eax)
 804849a:	00 00                	add    %al,(%eax)
 804849c:	00 00                	add    %al,(%eax)
 804849e:	00 00                	add    %al,(%eax)
 80484a0:	9b                   	fwait
 80484a1:	00 00                	add    %al,(%eax)
 80484a3:	00 12                	add    %dl,(%edx)
 80484a5:	00 00                	add    %al,(%eax)
 80484a7:	00 01                	add    %al,(%ecx)
	...
 80484b1:	00 00                	add    %al,(%eax)
 80484b3:	00 20                	add    %ah,(%eax)
 80484b5:	00 00                	add    %al,(%eax)
 80484b7:	00 1a                	add    %bl,(%edx)
 80484b9:	00 00                	add    %al,(%eax)
 80484bb:	00 00                	add    %al,(%eax)
 80484bd:	00 00                	add    %al,(%eax)
 80484bf:	00 22                	add    %ah,(%edx)
 80484c1:	00 00                	add    %al,(%eax)
 80484c3:	00 12                	add    %dl,(%edx)
 80484c5:	00 00                	add    %al,(%eax)
	...

Disassembly of section .dynstr:

080484c8 <.dynstr>:
 80484c8:	00 5f 5f             	add    %bl,0x5f(%edi)
 80484cb:	67 6d                	addr16 insl (%dx),%es:(%di)
 80484cd:	6f                   	outsl  %ds:(%esi),(%dx)
 80484ce:	6e                   	outsb  %ds:(%esi),(%dx)
 80484cf:	5f                   	pop    %edi
 80484d0:	73 74                	jae    8048546 <_init-0x29e>
 80484d2:	61                   	popa   
 80484d3:	72 74                	jb     8048549 <_init-0x29b>
 80484d5:	5f                   	pop    %edi
 80484d6:	5f                   	pop    %edi
 80484d7:	00 6c 69 62          	add    %ch,0x62(%ecx,%ebp,2)
 80484db:	63 2e                	arpl   %bp,(%esi)
 80484dd:	73 6f                	jae    804854e <_init-0x296>
 80484df:	2e 36 00 73 74       	add    %dh,%cs:%ss:0x74(%ebx)
 80484e4:	72 63                	jb     8048549 <_init-0x29b>
 80484e6:	70 79                	jo     8048561 <_init-0x283>
 80484e8:	00 73 74             	add    %dh,0x74(%ebx)
 80484eb:	64 6f                	outsl  %fs:(%esi),(%dx)
 80484ed:	75 74                	jne    8048563 <_init-0x281>
 80484ef:	00 63 6f             	add    %ah,0x6f(%ebx)
 80484f2:	6e                   	outsb  %ds:(%esi),(%dx)
 80484f3:	6e                   	outsb  %ds:(%esi),(%dx)
 80484f4:	65 63 74 00 67       	arpl   %si,%gs:0x67(%eax,%eax,1)
 80484f9:	65                   	gs
 80484fa:	74 65                	je     8048561 <_init-0x283>
 80484fc:	6e                   	outsb  %ds:(%esi),(%dx)
 80484fd:	76 00                	jbe    80484ff <_init-0x2e5>
 80484ff:	5f                   	pop    %edi
 8048500:	5f                   	pop    %edi
 8048501:	73 74                	jae    8048577 <_init-0x26d>
 8048503:	72 74                	jb     8048579 <_init-0x26b>
 8048505:	6f                   	outsl  %ds:(%esi),(%dx)
 8048506:	6c                   	insb   (%dx),%es:(%edi)
 8048507:	5f                   	pop    %edi
 8048508:	69 6e 74 65 72 6e 61 	imul   $0x616e7265,0x74(%esi),%ebp
 804850f:	6c                   	insb   (%dx),%es:(%edi)
 8048510:	00 66 67             	add    %ah,0x67(%esi)
 8048513:	65                   	gs
 8048514:	74 73                	je     8048589 <_init-0x25b>
 8048516:	00 74 6d 70          	add    %dh,0x70(%ebp,%ebp,2)
 804851a:	66 69 6c 65 00 70 75 	imul   $0x7570,0x0(%ebp,%eiz,2),%bp
 8048521:	74 73                	je     8048596 <_init-0x24e>
 8048523:	00 73 79             	add    %dh,0x79(%ebx)
 8048526:	73 74                	jae    804859c <_init-0x248>
 8048528:	65                   	gs
 8048529:	6d                   	insl   (%dx),%es:(%edi)
 804852a:	00 73 6c             	add    %dh,0x6c(%ebx)
 804852d:	65                   	gs
 804852e:	65                   	gs
 804852f:	70 00                	jo     8048531 <_init-0x2b3>
 8048531:	73 6f                	jae    80485a2 <_init-0x242>
 8048533:	63 6b 65             	arpl   %bp,0x65(%ebx)
 8048536:	74 00                	je     8048538 <_init-0x2ac>
 8048538:	66                   	data16
 8048539:	66                   	data16
 804853a:	6c                   	insb   (%dx),%es:(%edi)
 804853b:	75 73                	jne    80485b0 <_init-0x234>
 804853d:	68 00 5f 5f 73       	push   $0x735f5f00
 8048542:	74 61                	je     80485a5 <_init-0x23f>
 8048544:	63 6b 5f             	arpl   %bp,0x5f(%ebx)
 8048547:	63 68 6b             	arpl   %bp,0x6b(%eax)
 804854a:	5f                   	pop    %edi
 804854b:	66 61                	popaw  
 804854d:	69 6c 00 63 75 73 65 	imul   $0x72657375,0x63(%eax,%eax,1),%ebp
 8048554:	72 
 8048555:	69 64 00 66 70 72 69 	imul   $0x6e697270,0x66(%eax,%eax,1),%esp
 804855c:	6e 
 804855d:	74 66                	je     80485c5 <_init-0x21f>
 804855f:	00 73 74             	add    %dh,0x74(%ebx)
 8048562:	64 69 6e 00 73 69 67 	imul   $0x6e676973,%fs:0x0(%esi),%ebp
 8048569:	6e 
 804856a:	61                   	popa   
 804856b:	6c                   	insb   (%dx),%es:(%edi)
 804856c:	00 73 74             	add    %dh,0x74(%ebx)
 804856f:	72 63                	jb     80485d4 <_init-0x210>
 8048571:	61                   	popa   
 8048572:	73 65                	jae    80485d9 <_init-0x20b>
 8048574:	63 6d 70             	arpl   %bp,0x70(%ebp)
 8048577:	00 62 63             	add    %ah,0x63(%edx)
 804857a:	6f                   	outsl  %ds:(%esi),(%dx)
 804857b:	70 79                	jo     80485f6 <_init-0x1ee>
 804857d:	00 73 73             	add    %dh,0x73(%ebx)
 8048580:	63 61 6e             	arpl   %sp,0x6e(%ecx)
 8048583:	66                   	data16
 8048584:	00 64 75 70          	add    %ah,0x70(%ebp,%esi,2)
 8048588:	00 67 65             	add    %ah,0x65(%edi)
 804858b:	74 68                	je     80485f5 <_init-0x1ef>
 804858d:	6f                   	outsl  %ds:(%esi),(%dx)
 804858e:	73 74                	jae    8048604 <_init-0x1e0>
 8048590:	62 79 6e             	bound  %edi,0x6e(%ecx)
 8048593:	61                   	popa   
 8048594:	6d                   	insl   (%dx),%es:(%edi)
 8048595:	65 00 67 65          	add    %ah,%gs:0x65(%edi)
 8048599:	74 68                	je     8048603 <_init-0x1e1>
 804859b:	6f                   	outsl  %ds:(%esi),(%dx)
 804859c:	73 74                	jae    8048612 <_init-0x1d2>
 804859e:	6e                   	outsb  %ds:(%esi),(%dx)
 804859f:	61                   	popa   
 80485a0:	6d                   	insl   (%dx),%es:(%edi)
 80485a1:	65 00 73 70          	add    %dh,%gs:0x70(%ebx)
 80485a5:	72 69                	jb     8048610 <_init-0x1d4>
 80485a7:	6e                   	outsb  %ds:(%esi),(%dx)
 80485a8:	74 66                	je     8048610 <_init-0x1d4>
 80485aa:	00 66 63             	add    %ah,0x63(%esi)
 80485ad:	6c                   	insb   (%dx),%es:(%edi)
 80485ae:	6f                   	outsl  %ds:(%esi),(%dx)
 80485af:	73 65                	jae    8048616 <_init-0x1ce>
 80485b1:	00 66 70             	add    %ah,0x70(%esi)
 80485b4:	75 74                	jne    804862a <_init-0x1ba>
 80485b6:	63 00                	arpl   %ax,(%eax)
 80485b8:	5f                   	pop    %edi
 80485b9:	5f                   	pop    %edi
 80485ba:	63 74 79 70          	arpl   %si,0x70(%ecx,%edi,2)
 80485be:	65                   	gs
 80485bf:	5f                   	pop    %edi
 80485c0:	62 5f 6c             	bound  %ebx,0x6c(%edi)
 80485c3:	6f                   	outsl  %ds:(%esi),(%dx)
 80485c4:	63 00                	arpl   %ax,(%eax)
 80485c6:	66                   	data16
 80485c7:	77 72                	ja     804863b <_init-0x1a9>
 80485c9:	69 74 65 00 72 65 77 	imul   $0x69776572,0x0(%ebp,%eiz,2),%esi
 80485d0:	69 
 80485d1:	6e                   	outsb  %ds:(%esi),(%dx)
 80485d2:	64 00 65 78          	add    %ah,%fs:0x78(%ebp)
 80485d6:	69 74 00 66 6f 70 65 	imul   $0x6e65706f,0x66(%eax,%eax,1),%esi
 80485dd:	6e 
 80485de:	00 5f 49             	add    %bl,0x49(%edi)
 80485e1:	4f                   	dec    %edi
 80485e2:	5f                   	pop    %edi
 80485e3:	73 74                	jae    8048659 <_init-0x18b>
 80485e5:	64 69 6e 5f 75 73 65 	imul   $0x64657375,%fs:0x5f(%esi),%ebp
 80485ec:	64 
 80485ed:	00 5f 5f             	add    %bl,0x5f(%edi)
 80485f0:	6c                   	insb   (%dx),%es:(%edi)
 80485f1:	69 62 63 5f 73 74 61 	imul   $0x6174735f,0x63(%edx),%esp
 80485f8:	72 74                	jb     804866e <_init-0x176>
 80485fa:	5f                   	pop    %edi
 80485fb:	6d                   	insl   (%dx),%es:(%edi)
 80485fc:	61                   	popa   
 80485fd:	69 6e 00 47 4c 49 42 	imul   $0x42494c47,0x0(%esi),%ebp
 8048604:	43                   	inc    %ebx
 8048605:	5f                   	pop    %edi
 8048606:	32 2e                	xor    (%esi),%ch
 8048608:	33 00                	xor    (%eax),%eax
 804860a:	47                   	inc    %edi
 804860b:	4c                   	dec    %esp
 804860c:	49                   	dec    %ecx
 804860d:	42                   	inc    %edx
 804860e:	43                   	inc    %ebx
 804860f:	5f                   	pop    %edi
 8048610:	32 2e                	xor    (%esi),%ch
 8048612:	34 00                	xor    $0x0,%al
 8048614:	47                   	inc    %edi
 8048615:	4c                   	dec    %esp
 8048616:	49                   	dec    %ecx
 8048617:	42                   	inc    %edx
 8048618:	43                   	inc    %ebx
 8048619:	5f                   	pop    %edi
 804861a:	32 2e                	xor    (%esi),%ch
 804861c:	31 00                	xor    %eax,(%eax)
 804861e:	47                   	inc    %edi
 804861f:	4c                   	dec    %esp
 8048620:	49                   	dec    %ecx
 8048621:	42                   	inc    %edx
 8048622:	43                   	inc    %ebx
 8048623:	5f                   	pop    %edi
 8048624:	32 2e                	xor    (%esi),%ch
 8048626:	30 00                	xor    %al,(%eax)

Disassembly of section .gnu.version:

08048628 <.gnu.version>:
 8048628:	00 00                	add    %al,(%eax)
 804862a:	02 00                	add    (%eax),%al
 804862c:	02 00                	add    (%eax),%al
 804862e:	03 00                	add    (%eax),%eax
 8048630:	02 00                	add    (%eax),%al
 8048632:	02 00                	add    (%eax),%al
 8048634:	02 00                	add    (%eax),%al
 8048636:	02 00                	add    (%eax),%al
 8048638:	02 00                	add    (%eax),%al
 804863a:	02 00                	add    (%eax),%al
 804863c:	02 00                	add    (%eax),%al
 804863e:	02 00                	add    (%eax),%al
 8048640:	02 00                	add    (%eax),%al
 8048642:	02 00                	add    (%eax),%al
 8048644:	02 00                	add    (%eax),%al
 8048646:	02 00                	add    (%eax),%al
 8048648:	04 00                	add    $0x0,%al
 804864a:	02 00                	add    (%eax),%al
 804864c:	02 00                	add    (%eax),%al
 804864e:	03 00                	add    (%eax),%eax
 8048650:	02 00                	add    (%eax),%al
 8048652:	02 00                	add    (%eax),%al
 8048654:	02 00                	add    (%eax),%al
 8048656:	02 00                	add    (%eax),%al
 8048658:	02 00                	add    (%eax),%al
 804865a:	02 00                	add    (%eax),%al
 804865c:	02 00                	add    (%eax),%al
 804865e:	03 00                	add    (%eax),%eax
 8048660:	02 00                	add    (%eax),%al
 8048662:	01 00                	add    %eax,(%eax)
 8048664:	02 00                	add    (%eax),%al
 8048666:	02 00                	add    (%eax),%al
 8048668:	02 00                	add    (%eax),%al
 804866a:	05 00 02 00 00       	add    $0x200,%eax
 804866f:	00 02                	add    %al,(%edx)
	...

Disassembly of section .gnu.version_r:

08048674 <.gnu.version_r>:
 8048674:	01 00                	add    %eax,(%eax)
 8048676:	04 00                	add    $0x0,%al
 8048678:	10 00                	adc    %al,(%eax)
 804867a:	00 00                	add    %al,(%eax)
 804867c:	10 00                	adc    %al,(%eax)
 804867e:	00 00                	add    %al,(%eax)
 8048680:	00 00                	add    %al,(%eax)
 8048682:	00 00                	add    %al,(%eax)
 8048684:	13 69 69             	adc    0x69(%ecx),%ebp
 8048687:	0d 00 00 05 00       	or     $0x50000,%eax
 804868c:	38 01                	cmp    %al,(%ecx)
 804868e:	00 00                	add    %al,(%eax)
 8048690:	10 00                	adc    %al,(%eax)
 8048692:	00 00                	add    %al,(%eax)
 8048694:	14 69                	adc    $0x69,%al
 8048696:	69 0d 00 00 04 00 42 	imul   $0x142,0x40000,%ecx
 804869d:	01 00 00 
 80486a0:	10 00                	adc    %al,(%eax)
 80486a2:	00 00                	add    %al,(%eax)
 80486a4:	11 69 69             	adc    %ebp,0x69(%ecx)
 80486a7:	0d 00 00 03 00       	or     $0x30000,%eax
 80486ac:	4c                   	dec    %esp
 80486ad:	01 00                	add    %eax,(%eax)
 80486af:	00 10                	add    %dl,(%eax)
 80486b1:	00 00                	add    %al,(%eax)
 80486b3:	00 10                	add    %dl,(%eax)
 80486b5:	69 69 0d 00 00 02 00 	imul   $0x20000,0xd(%ecx),%ebp
 80486bc:	56                   	push   %esi
 80486bd:	01 00                	add    %eax,(%eax)
 80486bf:	00 00                	add    %al,(%eax)
 80486c1:	00 00                	add    %al,(%eax)
	...

Disassembly of section .rel.dyn:

080486c4 <.rel.dyn>:
 80486c4:	dc a0 04 08 06 23    	fsubl  0x23060804(%eax)
 80486ca:	00 00                	add    %al,(%eax)
 80486cc:	00 a8 04 08 05 0b    	add    %ch,0xb050804(%eax)
 80486d2:	00 00                	add    %al,(%eax)
 80486d4:	04 a8                	add    $0xa8,%al
 80486d6:	04 08                	add    $0x8,%al
 80486d8:	05                   	.byte 0x5
 80486d9:	1a 00                	sbb    (%eax),%al
	...

Disassembly of section .rel.plt:

080486dc <.rel.plt>:
 80486dc:	ec                   	in     (%dx),%al
 80486dd:	a0 04 08 07 01       	mov    0x1070804,%al
 80486e2:	00 00                	add    %al,(%eax)
 80486e4:	f0 a0 04 08 07 02    	lock mov 0x2070804,%al
 80486ea:	00 00                	add    %al,(%eax)
 80486ec:	f4                   	hlt    
 80486ed:	a0 04 08 07 03       	mov    0x3070804,%al
 80486f2:	00 00                	add    %al,(%eax)
 80486f4:	f8                   	clc    
 80486f5:	a0 04 08 07 04       	mov    0x4070804,%al
 80486fa:	00 00                	add    %al,(%eax)
 80486fc:	fc                   	cld    
 80486fd:	a0 04 08 07 05       	mov    0x5070804,%al
 8048702:	00 00                	add    %al,(%eax)
 8048704:	00 a1 04 08 07 06    	add    %ah,0x6070804(%ecx)
 804870a:	00 00                	add    %al,(%eax)
 804870c:	04 a1                	add    $0xa1,%al
 804870e:	04 08                	add    $0x8,%al
 8048710:	07                   	pop    %es
 8048711:	07                   	pop    %es
 8048712:	00 00                	add    %al,(%eax)
 8048714:	08 a1 04 08 07 08    	or     %ah,0x8070804(%ecx)
 804871a:	00 00                	add    %al,(%eax)
 804871c:	0c a1                	or     $0xa1,%al
 804871e:	04 08                	add    $0x8,%al
 8048720:	07                   	pop    %es
 8048721:	09 00                	or     %eax,(%eax)
 8048723:	00 10                	add    %dl,(%eax)
 8048725:	a1 04 08 07 0a       	mov    0xa070804,%eax
 804872a:	00 00                	add    %al,(%eax)
 804872c:	14 a1                	adc    $0xa1,%al
 804872e:	04 08                	add    $0x8,%al
 8048730:	07                   	pop    %es
 8048731:	0c 00                	or     $0x0,%al
 8048733:	00 18                	add    %bl,(%eax)
 8048735:	a1 04 08 07 0d       	mov    0xd070804,%eax
 804873a:	00 00                	add    %al,(%eax)
 804873c:	1c a1                	sbb    $0xa1,%al
 804873e:	04 08                	add    $0x8,%al
 8048740:	07                   	pop    %es
 8048741:	0e                   	push   %cs
 8048742:	00 00                	add    %al,(%eax)
 8048744:	20 a1 04 08 07 0f    	and    %ah,0xf070804(%ecx)
 804874a:	00 00                	add    %al,(%eax)
 804874c:	24 a1                	and    $0xa1,%al
 804874e:	04 08                	add    $0x8,%al
 8048750:	07                   	pop    %es
 8048751:	10 00                	adc    %al,(%eax)
 8048753:	00 28                	add    %ch,(%eax)
 8048755:	a1 04 08 07 11       	mov    0x11070804,%eax
 804875a:	00 00                	add    %al,(%eax)
 804875c:	2c a1                	sub    $0xa1,%al
 804875e:	04 08                	add    $0x8,%al
 8048760:	07                   	pop    %es
 8048761:	12 00                	adc    (%eax),%al
 8048763:	00 30                	add    %dh,(%eax)
 8048765:	a1 04 08 07 13       	mov    0x13070804,%eax
 804876a:	00 00                	add    %al,(%eax)
 804876c:	34 a1                	xor    $0xa1,%al
 804876e:	04 08                	add    $0x8,%al
 8048770:	07                   	pop    %es
 8048771:	14 00                	adc    $0x0,%al
 8048773:	00 38                	add    %bh,(%eax)
 8048775:	a1 04 08 07 15       	mov    0x15070804,%eax
 804877a:	00 00                	add    %al,(%eax)
 804877c:	3c a1                	cmp    $0xa1,%al
 804877e:	04 08                	add    $0x8,%al
 8048780:	07                   	pop    %es
 8048781:	16                   	push   %ss
 8048782:	00 00                	add    %al,(%eax)
 8048784:	40                   	inc    %eax
 8048785:	a1 04 08 07 17       	mov    0x17070804,%eax
 804878a:	00 00                	add    %al,(%eax)
 804878c:	44                   	inc    %esp
 804878d:	a1 04 08 07 18       	mov    0x18070804,%eax
 8048792:	00 00                	add    %al,(%eax)
 8048794:	48                   	dec    %eax
 8048795:	a1 04 08 07 19       	mov    0x19070804,%eax
 804879a:	00 00                	add    %al,(%eax)
 804879c:	4c                   	dec    %esp
 804879d:	a1 04 08 07 1b       	mov    0x1b070804,%eax
 80487a2:	00 00                	add    %al,(%eax)
 80487a4:	50                   	push   %eax
 80487a5:	a1 04 08 07 1c       	mov    0x1c070804,%eax
 80487aa:	00 00                	add    %al,(%eax)
 80487ac:	54                   	push   %esp
 80487ad:	a1 04 08 07 1e       	mov    0x1e070804,%eax
 80487b2:	00 00                	add    %al,(%eax)
 80487b4:	58                   	pop    %eax
 80487b5:	a1 04 08 07 1f       	mov    0x1f070804,%eax
 80487ba:	00 00                	add    %al,(%eax)
 80487bc:	5c                   	pop    %esp
 80487bd:	a1 04 08 07 20       	mov    0x20070804,%eax
 80487c2:	00 00                	add    %al,(%eax)
 80487c4:	60                   	pusha  
 80487c5:	a1 04 08 07 21       	mov    0x21070804,%eax
 80487ca:	00 00                	add    %al,(%eax)
 80487cc:	64 a1 04 08 07 22    	mov    %fs:0x22070804,%eax
 80487d2:	00 00                	add    %al,(%eax)
 80487d4:	68 a1 04 08 07       	push   $0x70804a1
 80487d9:	23 00                	and    (%eax),%eax
 80487db:	00 6c a1 04          	add    %ch,0x4(%ecx,%eiz,4)
 80487df:	08 07                	or     %al,(%edi)
 80487e1:	24 00                	and    $0x0,%al
	...

Disassembly of section .init:

080487e4 <_init>:
 80487e4:	55                   	push   %ebp
 80487e5:	89 e5                	mov    %esp,%ebp
 80487e7:	83 ec 08             	sub    $0x8,%esp
 80487ea:	e8 55 02 00 00       	call   8048a44 <call_gmon_start>
 80487ef:	e8 ac 02 00 00       	call   8048aa0 <frame_dummy>
 80487f4:	e8 47 10 00 00       	call   8049840 <__do_global_ctors_aux>
 80487f9:	c9                   	leave  
 80487fa:	c3                   	ret    

Disassembly of section .plt:

080487fc <close@plt-0x10>:
 80487fc:	ff 35 e4 a0 04 08    	pushl  0x804a0e4
 8048802:	ff 25 e8 a0 04 08    	jmp    *0x804a0e8
 8048808:	00 00                	add    %al,(%eax)
	...

0804880c <close@plt>:
 804880c:	ff 25 ec a0 04 08    	jmp    *0x804a0ec
 8048812:	68 00 00 00 00       	push   $0x0
 8048817:	e9 e0 ff ff ff       	jmp    80487fc <_init+0x18>

0804881c <fprintf@plt>:
 804881c:	ff 25 f0 a0 04 08    	jmp    *0x804a0f0
 8048822:	68 08 00 00 00       	push   $0x8
 8048827:	e9 d0 ff ff ff       	jmp    80487fc <_init+0x18>

0804882c <tmpfile@plt>:
 804882c:	ff 25 f4 a0 04 08    	jmp    *0x804a0f4
 8048832:	68 10 00 00 00       	push   $0x10
 8048837:	e9 c0 ff ff ff       	jmp    80487fc <_init+0x18>

0804883c <getenv@plt>:
 804883c:	ff 25 f8 a0 04 08    	jmp    *0x804a0f8
 8048842:	68 18 00 00 00       	push   $0x18
 8048847:	e9 b0 ff ff ff       	jmp    80487fc <_init+0x18>

0804884c <signal@plt>:
 804884c:	ff 25 fc a0 04 08    	jmp    *0x804a0fc
 8048852:	68 20 00 00 00       	push   $0x20
 8048857:	e9 a0 ff ff ff       	jmp    80487fc <_init+0x18>

0804885c <fflush@plt>:
 804885c:	ff 25 00 a1 04 08    	jmp    *0x804a100
 8048862:	68 28 00 00 00       	push   $0x28
 8048867:	e9 90 ff ff ff       	jmp    80487fc <_init+0x18>

0804886c <bcopy@plt>:
 804886c:	ff 25 04 a1 04 08    	jmp    *0x804a104
 8048872:	68 30 00 00 00       	push   $0x30
 8048877:	e9 80 ff ff ff       	jmp    80487fc <_init+0x18>

0804887c <rewind@plt>:
 804887c:	ff 25 08 a1 04 08    	jmp    *0x804a108
 8048882:	68 38 00 00 00       	push   $0x38
 8048887:	e9 70 ff ff ff       	jmp    80487fc <_init+0x18>

0804888c <system@plt>:
 804888c:	ff 25 0c a1 04 08    	jmp    *0x804a10c
 8048892:	68 40 00 00 00       	push   $0x40
 8048897:	e9 60 ff ff ff       	jmp    80487fc <_init+0x18>

0804889c <puts@plt>:
 804889c:	ff 25 10 a1 04 08    	jmp    *0x804a110
 80488a2:	68 48 00 00 00       	push   $0x48
 80488a7:	e9 50 ff ff ff       	jmp    80487fc <_init+0x18>

080488ac <fgets@plt>:
 80488ac:	ff 25 14 a1 04 08    	jmp    *0x804a114
 80488b2:	68 50 00 00 00       	push   $0x50
 80488b7:	e9 40 ff ff ff       	jmp    80487fc <_init+0x18>

080488bc <sleep@plt>:
 80488bc:	ff 25 18 a1 04 08    	jmp    *0x804a118
 80488c2:	68 58 00 00 00       	push   $0x58
 80488c7:	e9 30 ff ff ff       	jmp    80487fc <_init+0x18>

080488cc <__strtol_internal@plt>:
 80488cc:	ff 25 1c a1 04 08    	jmp    *0x804a11c
 80488d2:	68 60 00 00 00       	push   $0x60
 80488d7:	e9 20 ff ff ff       	jmp    80487fc <_init+0x18>

080488dc <fputc@plt>:
 80488dc:	ff 25 20 a1 04 08    	jmp    *0x804a120
 80488e2:	68 68 00 00 00       	push   $0x68
 80488e7:	e9 10 ff ff ff       	jmp    80487fc <_init+0x18>

080488ec <__stack_chk_fail@plt>:
 80488ec:	ff 25 24 a1 04 08    	jmp    *0x804a124
 80488f2:	68 70 00 00 00       	push   $0x70
 80488f7:	e9 00 ff ff ff       	jmp    80487fc <_init+0x18>

080488fc <__libc_start_main@plt>:
 80488fc:	ff 25 28 a1 04 08    	jmp    *0x804a128
 8048902:	68 78 00 00 00       	push   $0x78
 8048907:	e9 f0 fe ff ff       	jmp    80487fc <_init+0x18>

0804890c <printf@plt>:
 804890c:	ff 25 2c a1 04 08    	jmp    *0x804a12c
 8048912:	68 80 00 00 00       	push   $0x80
 8048917:	e9 e0 fe ff ff       	jmp    80487fc <_init+0x18>

0804891c <fclose@plt>:
 804891c:	ff 25 30 a1 04 08    	jmp    *0x804a130
 8048922:	68 88 00 00 00       	push   $0x88
 8048927:	e9 d0 fe ff ff       	jmp    80487fc <_init+0x18>

0804892c <gethostname@plt>:
 804892c:	ff 25 34 a1 04 08    	jmp    *0x804a134
 8048932:	68 90 00 00 00       	push   $0x90
 8048937:	e9 c0 fe ff ff       	jmp    80487fc <_init+0x18>

0804893c <gethostbyname@plt>:
 804893c:	ff 25 38 a1 04 08    	jmp    *0x804a138
 8048942:	68 98 00 00 00       	push   $0x98
 8048947:	e9 b0 fe ff ff       	jmp    80487fc <_init+0x18>

0804894c <strcasecmp@plt>:
 804894c:	ff 25 3c a1 04 08    	jmp    *0x804a13c
 8048952:	68 a0 00 00 00       	push   $0xa0
 8048957:	e9 a0 fe ff ff       	jmp    80487fc <_init+0x18>

0804895c <exit@plt>:
 804895c:	ff 25 40 a1 04 08    	jmp    *0x804a140
 8048962:	68 a8 00 00 00       	push   $0xa8
 8048967:	e9 90 fe ff ff       	jmp    80487fc <_init+0x18>

0804896c <sscanf@plt>:
 804896c:	ff 25 44 a1 04 08    	jmp    *0x804a144
 8048972:	68 b0 00 00 00       	push   $0xb0
 8048977:	e9 80 fe ff ff       	jmp    80487fc <_init+0x18>

0804897c <connect@plt>:
 804897c:	ff 25 48 a1 04 08    	jmp    *0x804a148
 8048982:	68 b8 00 00 00       	push   $0xb8
 8048987:	e9 70 fe ff ff       	jmp    80487fc <_init+0x18>

0804898c <fopen@plt>:
 804898c:	ff 25 4c a1 04 08    	jmp    *0x804a14c
 8048992:	68 c0 00 00 00       	push   $0xc0
 8048997:	e9 60 fe ff ff       	jmp    80487fc <_init+0x18>

0804899c <dup@plt>:
 804899c:	ff 25 50 a1 04 08    	jmp    *0x804a150
 80489a2:	68 c8 00 00 00       	push   $0xc8
 80489a7:	e9 50 fe ff ff       	jmp    80487fc <_init+0x18>

080489ac <sprintf@plt>:
 80489ac:	ff 25 54 a1 04 08    	jmp    *0x804a154
 80489b2:	68 d0 00 00 00       	push   $0xd0
 80489b7:	e9 40 fe ff ff       	jmp    80487fc <_init+0x18>

080489bc <fwrite@plt>:
 80489bc:	ff 25 58 a1 04 08    	jmp    *0x804a158
 80489c2:	68 d8 00 00 00       	push   $0xd8
 80489c7:	e9 30 fe ff ff       	jmp    80487fc <_init+0x18>

080489cc <socket@plt>:
 80489cc:	ff 25 5c a1 04 08    	jmp    *0x804a15c
 80489d2:	68 e0 00 00 00       	push   $0xe0
 80489d7:	e9 20 fe ff ff       	jmp    80487fc <_init+0x18>

080489dc <__ctype_b_loc@plt>:
 80489dc:	ff 25 60 a1 04 08    	jmp    *0x804a160
 80489e2:	68 e8 00 00 00       	push   $0xe8
 80489e7:	e9 10 fe ff ff       	jmp    80487fc <_init+0x18>

080489ec <cuserid@plt>:
 80489ec:	ff 25 64 a1 04 08    	jmp    *0x804a164
 80489f2:	68 f0 00 00 00       	push   $0xf0
 80489f7:	e9 00 fe ff ff       	jmp    80487fc <_init+0x18>

080489fc <__gmon_start__@plt>:
 80489fc:	ff 25 68 a1 04 08    	jmp    *0x804a168
 8048a02:	68 f8 00 00 00       	push   $0xf8
 8048a07:	e9 f0 fd ff ff       	jmp    80487fc <_init+0x18>

08048a0c <strcpy@plt>:
 8048a0c:	ff 25 6c a1 04 08    	jmp    *0x804a16c
 8048a12:	68 00 01 00 00       	push   $0x100
 8048a17:	e9 e0 fd ff ff       	jmp    80487fc <_init+0x18>

Disassembly of section .text:

08048a20 <_start>:
 8048a20:	31 ed                	xor    %ebp,%ebp
 8048a22:	5e                   	pop    %esi
 8048a23:	89 e1                	mov    %esp,%ecx
 8048a25:	83 e4 f0             	and    $0xfffffff0,%esp
 8048a28:	50                   	push   %eax
 8048a29:	54                   	push   %esp
 8048a2a:	52                   	push   %edx
 8048a2b:	68 c0 97 04 08       	push   $0x80497c0
 8048a30:	68 d0 97 04 08       	push   $0x80497d0
 8048a35:	51                   	push   %ecx
 8048a36:	56                   	push   %esi
 8048a37:	68 c4 8a 04 08       	push   $0x8048ac4
 8048a3c:	e8 bb fe ff ff       	call   80488fc <__libc_start_main@plt>
 8048a41:	f4                   	hlt    
 8048a42:	90                   	nop
 8048a43:	90                   	nop

08048a44 <call_gmon_start>:
 8048a44:	55                   	push   %ebp
 8048a45:	89 e5                	mov    %esp,%ebp
 8048a47:	53                   	push   %ebx
 8048a48:	83 ec 04             	sub    $0x4,%esp
 8048a4b:	e8 00 00 00 00       	call   8048a50 <call_gmon_start+0xc>
 8048a50:	5b                   	pop    %ebx
 8048a51:	81 c3 90 16 00 00    	add    $0x1690,%ebx
 8048a57:	8b 93 fc ff ff ff    	mov    -0x4(%ebx),%edx
 8048a5d:	85 d2                	test   %edx,%edx
 8048a5f:	74 05                	je     8048a66 <call_gmon_start+0x22>
 8048a61:	e8 96 ff ff ff       	call   80489fc <__gmon_start__@plt>
 8048a66:	58                   	pop    %eax
 8048a67:	5b                   	pop    %ebx
 8048a68:	c9                   	leave  
 8048a69:	c3                   	ret    
 8048a6a:	90                   	nop
 8048a6b:	90                   	nop
 8048a6c:	90                   	nop
 8048a6d:	90                   	nop
 8048a6e:	90                   	nop
 8048a6f:	90                   	nop

08048a70 <__do_global_dtors_aux>:
 8048a70:	55                   	push   %ebp
 8048a71:	89 e5                	mov    %esp,%ebp
 8048a73:	83 ec 08             	sub    $0x8,%esp
 8048a76:	80 3d 08 a8 04 08 00 	cmpb   $0x0,0x804a808
 8048a7d:	74 0c                	je     8048a8b <__do_global_dtors_aux+0x1b>
 8048a7f:	eb 1c                	jmp    8048a9d <__do_global_dtors_aux+0x2d>
 8048a81:	83 c0 04             	add    $0x4,%eax
 8048a84:	a3 88 a1 04 08       	mov    %eax,0x804a188
 8048a89:	ff d2                	call   *%edx
 8048a8b:	a1 88 a1 04 08       	mov    0x804a188,%eax
 8048a90:	8b 10                	mov    (%eax),%edx
 8048a92:	85 d2                	test   %edx,%edx
 8048a94:	75 eb                	jne    8048a81 <__do_global_dtors_aux+0x11>
 8048a96:	c6 05 08 a8 04 08 01 	movb   $0x1,0x804a808
 8048a9d:	c9                   	leave  
 8048a9e:	c3                   	ret    
 8048a9f:	90                   	nop

08048aa0 <frame_dummy>:
 8048aa0:	55                   	push   %ebp
 8048aa1:	89 e5                	mov    %esp,%ebp
 8048aa3:	83 ec 08             	sub    $0x8,%esp
 8048aa6:	a1 10 a0 04 08       	mov    0x804a010,%eax
 8048aab:	85 c0                	test   %eax,%eax
 8048aad:	74 12                	je     8048ac1 <frame_dummy+0x21>
 8048aaf:	b8 00 00 00 00       	mov    $0x0,%eax
 8048ab4:	85 c0                	test   %eax,%eax
 8048ab6:	74 09                	je     8048ac1 <frame_dummy+0x21>
 8048ab8:	c7 04 24 10 a0 04 08 	movl   $0x804a010,(%esp)
 8048abf:	ff d0                	call   *%eax
 8048ac1:	c9                   	leave  
 8048ac2:	c3                   	ret    
 8048ac3:	90                   	nop

08048ac4 <main>:
 8048ac4:	8d 4c 24 04          	lea    0x4(%esp),%ecx
 8048ac8:	83 e4 f0             	and    $0xfffffff0,%esp
 8048acb:	ff 71 fc             	pushl  -0x4(%ecx)
 8048ace:	55                   	push   %ebp
 8048acf:	89 e5                	mov    %esp,%ebp
 8048ad1:	53                   	push   %ebx
 8048ad2:	51                   	push   %ecx
 8048ad3:	83 ec 10             	sub    $0x10,%esp
 8048ad6:	8b 01                	mov    (%ecx),%eax
 8048ad8:	8b 59 04             	mov    0x4(%ecx),%ebx
 8048adb:	83 f8 01             	cmp    $0x1,%eax
 8048ade:	75 0c                	jne    8048aec <main+0x28>
 8048ae0:	a1 04 a8 04 08       	mov    0x804a804,%eax
 8048ae5:	a3 10 a8 04 08       	mov    %eax,0x804a810
 8048aea:	eb 64                	jmp    8048b50 <main+0x8c>
 8048aec:	83 f8 02             	cmp    $0x2,%eax
 8048aef:	75 41                	jne    8048b32 <main+0x6e>
 8048af1:	c7 44 24 04 d2 9a 04 	movl   $0x8049ad2,0x4(%esp)
 8048af8:	08 
 8048af9:	8b 43 04             	mov    0x4(%ebx),%eax
 8048afc:	89 04 24             	mov    %eax,(%esp)
 8048aff:	e8 88 fe ff ff       	call   804898c <fopen@plt>
 8048b04:	a3 10 a8 04 08       	mov    %eax,0x804a810
 8048b09:	85 c0                	test   %eax,%eax
 8048b0b:	75 43                	jne    8048b50 <main+0x8c>
 8048b0d:	8b 43 04             	mov    0x4(%ebx),%eax
 8048b10:	89 44 24 08          	mov    %eax,0x8(%esp)
 8048b14:	8b 03                	mov    (%ebx),%eax
 8048b16:	89 44 24 04          	mov    %eax,0x4(%esp)
 8048b1a:	c7 04 24 a8 98 04 08 	movl   $0x80498a8,(%esp)
 8048b21:	e8 e6 fd ff ff       	call   804890c <printf@plt>
 8048b26:	c7 04 24 08 00 00 00 	movl   $0x8,(%esp)
 8048b2d:	e8 2a fe ff ff       	call   804895c <exit@plt>
 8048b32:	8b 03                	mov    (%ebx),%eax
 8048b34:	89 44 24 04          	mov    %eax,0x4(%esp)
 8048b38:	c7 04 24 c5 98 04 08 	movl   $0x80498c5,(%esp)
 8048b3f:	e8 c8 fd ff ff       	call   804890c <printf@plt>
 8048b44:	c7 04 24 08 00 00 00 	movl   $0x8,(%esp)
 8048b4b:	e8 0c fe ff ff       	call   804895c <exit@plt>
 8048b50:	e8 89 0b 00 00       	call   80496de <initialize_bomb>
 8048b55:	c7 04 24 2c 99 04 08 	movl   $0x804992c,(%esp)
 8048b5c:	e8 3b fd ff ff       	call   804889c <puts@plt>
 8048b61:	c7 04 24 68 99 04 08 	movl   $0x8049968,(%esp)
 8048b68:	e8 2f fd ff ff       	call   804889c <puts@plt>
 8048b6d:	e8 0f 09 00 00       	call   8049481 <read_line>
 8048b72:	89 04 24             	mov    %eax,(%esp)
 8048b75:	e8 1f 04 00 00       	call   8048f99 <phase_1>
 8048b7a:	e8 44 07 00 00       	call   80492c3 <phase_defused>
 8048b7f:	c7 04 24 94 99 04 08 	movl   $0x8049994,(%esp)
 8048b86:	e8 11 fd ff ff       	call   804889c <puts@plt>
 8048b8b:	e8 f1 08 00 00       	call   8049481 <read_line>
 8048b90:	89 04 24             	mov    %eax,(%esp)
 8048b93:	e8 73 02 00 00       	call   8048e0b <phase_2>
 8048b98:	e8 26 07 00 00       	call   80492c3 <phase_defused>
 8048b9d:	c7 04 24 df 98 04 08 	movl   $0x80498df,(%esp)
 8048ba4:	e8 f3 fc ff ff       	call   804889c <puts@plt>
 8048ba9:	e8 d3 08 00 00       	call   8049481 <read_line>
 8048bae:	89 04 24             	mov    %eax,(%esp)
 8048bb1:	e8 4b 03 00 00       	call   8048f01 <phase_3>
 8048bb6:	e8 08 07 00 00       	call   80492c3 <phase_defused>
 8048bbb:	c7 04 24 fd 98 04 08 	movl   $0x80498fd,(%esp)
 8048bc2:	e8 d5 fc ff ff       	call   804889c <puts@plt>
 8048bc7:	e8 b5 08 00 00       	call   8049481 <read_line>
 8048bcc:	89 04 24             	mov    %eax,(%esp)
 8048bcf:	e8 dd 02 00 00       	call   8048eb1 <phase_4>
 8048bd4:	e8 ea 06 00 00       	call   80492c3 <phase_defused>
 8048bd9:	c7 04 24 c0 99 04 08 	movl   $0x80499c0,(%esp)
 8048be0:	e8 b7 fc ff ff       	call   804889c <puts@plt>
 8048be5:	e8 97 08 00 00       	call   8049481 <read_line>
 8048bea:	89 04 24             	mov    %eax,(%esp)
 8048bed:	e8 73 02 00 00       	call   8048e65 <phase_5>
 8048bf2:	e8 cc 06 00 00       	call   80492c3 <phase_defused>
 8048bf7:	c7 04 24 0c 99 04 08 	movl   $0x804990c,(%esp)
 8048bfe:	e8 99 fc ff ff       	call   804889c <puts@plt>
 8048c03:	e8 79 08 00 00       	call   8049481 <read_line>
 8048c08:	89 04 24             	mov    %eax,(%esp)
 8048c0b:	e8 09 01 00 00       	call   8048d19 <phase_6>
 8048c10:	e8 ae 06 00 00       	call   80492c3 <phase_defused>
 8048c15:	b8 00 00 00 00       	mov    $0x0,%eax
 8048c1a:	83 c4 10             	add    $0x10,%esp
 8048c1d:	59                   	pop    %ecx
 8048c1e:	5b                   	pop    %ebx
 8048c1f:	5d                   	pop    %ebp
 8048c20:	8d 61 fc             	lea    -0x4(%ecx),%esp
 8048c23:	c3                   	ret    
 8048c24:	90                   	nop
 8048c25:	90                   	nop
 8048c26:	90                   	nop
 8048c27:	90                   	nop
 8048c28:	90                   	nop
 8048c29:	90                   	nop
 8048c2a:	90                   	nop
 8048c2b:	90                   	nop
 8048c2c:	90                   	nop
 8048c2d:	90                   	nop
 8048c2e:	90                   	nop
 8048c2f:	90                   	nop

08048c30 <func4>:
 8048c30:	55                   	push   %ebp
 8048c31:	89 e5                	mov    %esp,%ebp
 8048c33:	83 ec 04             	sub    $0x4,%esp
 8048c36:	8b 55 08             	mov    0x8(%ebp),%edx
 8048c39:	b8 01 00 00 00       	mov    $0x1,%eax
 8048c3e:	85 d2                	test   %edx,%edx
 8048c40:	7e 16                	jle    8048c58 <func4+0x28>
 8048c42:	8d 42 ff             	lea    -0x1(%edx),%eax
 8048c45:	89 04 24             	mov    %eax,(%esp)
 8048c48:	e8 e3 ff ff ff       	call   8048c30 <func4>
 8048c4d:	8d 14 c5 00 00 00 00 	lea    0x0(,%eax,8),%edx
 8048c54:	29 c2                	sub    %eax,%edx
 8048c56:	89 d0                	mov    %edx,%eax
 8048c58:	c9                   	leave  
 8048c59:	c3                   	ret    

08048c5a <fun7>:
 8048c5a:	55                   	push   %ebp
 8048c5b:	89 e5                	mov    %esp,%ebp
 8048c5d:	53                   	push   %ebx
 8048c5e:	83 ec 08             	sub    $0x8,%esp
 8048c61:	8b 5d 08             	mov    0x8(%ebp),%ebx
 8048c64:	8b 4d 0c             	mov    0xc(%ebp),%ecx
 8048c67:	b8 ff ff ff ff       	mov    $0xffffffff,%eax
 8048c6c:	85 db                	test   %ebx,%ebx
 8048c6e:	74 35                	je     8048ca5 <fun7+0x4b>
 8048c70:	8b 13                	mov    (%ebx),%edx
 8048c72:	39 ca                	cmp    %ecx,%edx
 8048c74:	7e 13                	jle    8048c89 <fun7+0x2f>
 8048c76:	89 4c 24 04          	mov    %ecx,0x4(%esp)
 8048c7a:	8b 43 04             	mov    0x4(%ebx),%eax
 8048c7d:	89 04 24             	mov    %eax,(%esp)
 8048c80:	e8 d5 ff ff ff       	call   8048c5a <fun7>
 8048c85:	01 c0                	add    %eax,%eax
 8048c87:	eb 1c                	jmp    8048ca5 <fun7+0x4b>
 8048c89:	b8 00 00 00 00       	mov    $0x0,%eax
 8048c8e:	39 ca                	cmp    %ecx,%edx
 8048c90:	74 13                	je     8048ca5 <fun7+0x4b>
 8048c92:	89 4c 24 04          	mov    %ecx,0x4(%esp)
 8048c96:	8b 43 08             	mov    0x8(%ebx),%eax
 8048c99:	89 04 24             	mov    %eax,(%esp)
 8048c9c:	e8 b9 ff ff ff       	call   8048c5a <fun7>
 8048ca1:	8d 44 00 01          	lea    0x1(%eax,%eax,1),%eax
 8048ca5:	83 c4 08             	add    $0x8,%esp
 8048ca8:	5b                   	pop    %ebx
 8048ca9:	5d                   	pop    %ebp
 8048caa:	c3                   	ret    

08048cab <secret_phase>:
 8048cab:	55                   	push   %ebp
 8048cac:	89 e5                	mov    %esp,%ebp
 8048cae:	53                   	push   %ebx
 8048caf:	83 ec 14             	sub    $0x14,%esp
 8048cb2:	e8 ca 07 00 00       	call   8049481 <read_line>
 8048cb7:	c7 44 24 0c 00 00 00 	movl   $0x0,0xc(%esp)
 8048cbe:	00 
 8048cbf:	c7 44 24 08 0a 00 00 	movl   $0xa,0x8(%esp)
 8048cc6:	00 
 8048cc7:	c7 44 24 04 00 00 00 	movl   $0x0,0x4(%esp)
 8048cce:	00 
 8048ccf:	89 04 24             	mov    %eax,(%esp)
 8048cd2:	e8 f5 fb ff ff       	call   80488cc <__strtol_internal@plt>
 8048cd7:	89 c3                	mov    %eax,%ebx
 8048cd9:	8d 40 ff             	lea    -0x1(%eax),%eax
 8048cdc:	3d e8 03 00 00       	cmp    $0x3e8,%eax
 8048ce1:	76 05                	jbe    8048ce8 <secret_phase+0x3d>
 8048ce3:	e8 89 06 00 00       	call   8049371 <explode_bomb>
 8048ce8:	89 5c 24 04          	mov    %ebx,0x4(%esp)
 8048cec:	c7 04 24 b0 a6 04 08 	movl   $0x804a6b0,(%esp)
 8048cf3:	e8 62 ff ff ff       	call   8048c5a <fun7>
 8048cf8:	83 f8 04             	cmp    $0x4,%eax
 8048cfb:	74 05                	je     8048d02 <secret_phase+0x57>
 8048cfd:	e8 6f 06 00 00       	call   8049371 <explode_bomb>
 8048d02:	c7 04 24 e4 99 04 08 	movl   $0x80499e4,(%esp)
 8048d09:	e8 8e fb ff ff       	call   804889c <puts@plt>
 8048d0e:	e8 b0 05 00 00       	call   80492c3 <phase_defused>
 8048d13:	83 c4 14             	add    $0x14,%esp
 8048d16:	5b                   	pop    %ebx
 8048d17:	5d                   	pop    %ebp
 8048d18:	c3                   	ret    

08048d19 <phase_6>:
 8048d19:	55                   	push   %ebp
 8048d1a:	89 e5                	mov    %esp,%ebp
 8048d1c:	57                   	push   %edi
 8048d1d:	56                   	push   %esi
 8048d1e:	53                   	push   %ebx
 8048d1f:	83 ec 3c             	sub    $0x3c,%esp
 8048d22:	8d 45 dc             	lea    -0x24(%ebp),%eax
 8048d25:	89 44 24 04          	mov    %eax,0x4(%esp)
 8048d29:	8b 45 08             	mov    0x8(%ebp),%eax
 8048d2c:	89 04 24             	mov    %eax,(%esp)
 8048d2f:	e8 7f 06 00 00       	call   80493b3 <read_six_numbers>
 8048d34:	bb 00 00 00 00       	mov    $0x0,%ebx
 8048d39:	8b 44 9d dc          	mov    -0x24(%ebp,%ebx,4),%eax
 8048d3d:	83 e8 01             	sub    $0x1,%eax
 8048d40:	83 f8 05             	cmp    $0x5,%eax
 8048d43:	76 05                	jbe    8048d4a <phase_6+0x31>
 8048d45:	e8 27 06 00 00       	call   8049371 <explode_bomb>
 8048d4a:	8d 7b 01             	lea    0x1(%ebx),%edi
 8048d4d:	83 ff 06             	cmp    $0x6,%edi
 8048d50:	0f 84 9c 00 00 00    	je     8048df2 <phase_6+0xd9>
 8048d56:	8d 74 9d dc          	lea    -0x24(%ebp,%ebx,4),%esi
 8048d5a:	89 fb                	mov    %edi,%ebx
 8048d5c:	8d 45 dc             	lea    -0x24(%ebp),%eax
 8048d5f:	89 45 c0             	mov    %eax,-0x40(%ebp)
 8048d62:	8b 55 c0             	mov    -0x40(%ebp),%edx
 8048d65:	8b 44 ba fc          	mov    -0x4(%edx,%edi,4),%eax
 8048d69:	3b 46 04             	cmp    0x4(%esi),%eax
 8048d6c:	75 05                	jne    8048d73 <phase_6+0x5a>
 8048d6e:	e8 fe 05 00 00       	call   8049371 <explode_bomb>
 8048d73:	83 c3 01             	add    $0x1,%ebx
 8048d76:	83 c6 04             	add    $0x4,%esi
 8048d79:	83 fb 05             	cmp    $0x5,%ebx
 8048d7c:	7e e4                	jle    8048d62 <phase_6+0x49>
 8048d7e:	89 fb                	mov    %edi,%ebx
 8048d80:	eb b7                	jmp    8048d39 <phase_6+0x20>
 8048d82:	8b 49 08             	mov    0x8(%ecx),%ecx
 8048d85:	83 c0 01             	add    $0x1,%eax
 8048d88:	3b 44 95 dc          	cmp    -0x24(%ebp,%edx,4),%eax
 8048d8c:	7c f4                	jl     8048d82 <phase_6+0x69>
 8048d8e:	89 4c 95 c4          	mov    %ecx,-0x3c(%ebp,%edx,4)
 8048d92:	83 c2 01             	add    $0x1,%edx
 8048d95:	83 fa 05             	cmp    $0x5,%edx
 8048d98:	7f 0c                	jg     8048da6 <phase_6+0x8d>
 8048d9a:	b9 fc a5 04 08       	mov    $0x804a5fc,%ecx
 8048d9f:	b8 01 00 00 00       	mov    $0x1,%eax
 8048da4:	eb e2                	jmp    8048d88 <phase_6+0x6f>
 8048da6:	8b 4d c4             	mov    -0x3c(%ebp),%ecx
 8048da9:	8b 45 c8             	mov    -0x38(%ebp),%eax
 8048dac:	89 41 08             	mov    %eax,0x8(%ecx)
 8048daf:	8b 55 cc             	mov    -0x34(%ebp),%edx
 8048db2:	89 50 08             	mov    %edx,0x8(%eax)
 8048db5:	8b 45 d0             	mov    -0x30(%ebp),%eax
 8048db8:	89 42 08             	mov    %eax,0x8(%edx)
 8048dbb:	8b 55 d4             	mov    -0x2c(%ebp),%edx
 8048dbe:	89 50 08             	mov    %edx,0x8(%eax)
 8048dc1:	8b 45 d8             	mov    -0x28(%ebp),%eax
 8048dc4:	89 42 08             	mov    %eax,0x8(%edx)
 8048dc7:	c7 40 08 00 00 00 00 	movl   $0x0,0x8(%eax)
 8048dce:	89 cb                	mov    %ecx,%ebx
 8048dd0:	be 00 00 00 00       	mov    $0x0,%esi
 8048dd5:	8b 53 08             	mov    0x8(%ebx),%edx
 8048dd8:	8b 03                	mov    (%ebx),%eax
 8048dda:	3b 02                	cmp    (%edx),%eax
 8048ddc:	7d 05                	jge    8048de3 <phase_6+0xca>
 8048dde:	e8 8e 05 00 00       	call   8049371 <explode_bomb>
 8048de3:	8b 5b 08             	mov    0x8(%ebx),%ebx
 8048de6:	83 c6 01             	add    $0x1,%esi
 8048de9:	83 fe 05             	cmp    $0x5,%esi
 8048dec:	74 15                	je     8048e03 <phase_6+0xea>
 8048dee:	89 f6                	mov    %esi,%esi
 8048df0:	eb e3                	jmp    8048dd5 <phase_6+0xbc>
 8048df2:	b9 fc a5 04 08       	mov    $0x804a5fc,%ecx
 8048df7:	b8 01 00 00 00       	mov    $0x1,%eax
 8048dfc:	ba 00 00 00 00       	mov    $0x0,%edx
 8048e01:	eb 85                	jmp    8048d88 <phase_6+0x6f>
 8048e03:	83 c4 3c             	add    $0x3c,%esp
 8048e06:	5b                   	pop    %ebx
 8048e07:	5e                   	pop    %esi
 8048e08:	5f                   	pop    %edi
 8048e09:	5d                   	pop    %ebp
 8048e0a:	c3                   	ret    

08048e0b <phase_2>:
 8048e0b:	55                   	push   %ebp
 8048e0c:	89 e5                	mov    %esp,%ebp
 8048e0e:	83 ec 38             	sub    $0x38,%esp
 8048e11:	89 5d f4             	mov    %ebx,-0xc(%ebp)
 8048e14:	89 75 f8             	mov    %esi,-0x8(%ebp)
 8048e17:	89 7d fc             	mov    %edi,-0x4(%ebp)
 8048e1a:	8d 45 dc             	lea    -0x24(%ebp),%eax
 8048e1d:	89 44 24 04          	mov    %eax,0x4(%esp)
 8048e21:	8b 45 08             	mov    0x8(%ebp),%eax
 8048e24:	89 04 24             	mov    %eax,(%esp)
 8048e27:	e8 87 05 00 00       	call   80493b3 <read_six_numbers>
 8048e2c:	bf 00 00 00 00       	mov    $0x0,%edi
 8048e31:	8d 5d e8             	lea    -0x18(%ebp),%ebx
 8048e34:	89 de                	mov    %ebx,%esi
 8048e36:	8b 43 f4             	mov    -0xc(%ebx),%eax
 8048e39:	3b 03                	cmp    (%ebx),%eax
 8048e3b:	74 05                	je     8048e42 <phase_2+0x37>
 8048e3d:	e8 2f 05 00 00       	call   8049371 <explode_bomb>
 8048e42:	03 7e f4             	add    -0xc(%esi),%edi
 8048e45:	83 c3 04             	add    $0x4,%ebx
 8048e48:	8d 45 f4             	lea    -0xc(%ebp),%eax
 8048e4b:	39 c3                	cmp    %eax,%ebx
 8048e4d:	75 e5                	jne    8048e34 <phase_2+0x29>
 8048e4f:	85 ff                	test   %edi,%edi
 8048e51:	75 05                	jne    8048e58 <phase_2+0x4d>
 8048e53:	e8 19 05 00 00       	call   8049371 <explode_bomb>
 8048e58:	8b 5d f4             	mov    -0xc(%ebp),%ebx
 8048e5b:	8b 75 f8             	mov    -0x8(%ebp),%esi
 8048e5e:	8b 7d fc             	mov    -0x4(%ebp),%edi
 8048e61:	89 ec                	mov    %ebp,%esp
 8048e63:	5d                   	pop    %ebp
 8048e64:	c3                   	ret    

08048e65 <phase_5>:
 8048e65:	55                   	push   %ebp
 8048e66:	89 e5                	mov    %esp,%ebp
 8048e68:	53                   	push   %ebx
 8048e69:	83 ec 04             	sub    $0x4,%esp
 8048e6c:	8b 5d 08             	mov    0x8(%ebp),%ebx
 8048e6f:	89 1c 24             	mov    %ebx,(%esp)
 8048e72:	e8 59 01 00 00       	call   8048fd0 <string_length>
 8048e77:	83 f8 06             	cmp    $0x6,%eax
 8048e7a:	74 05                	je     8048e81 <phase_5+0x1c>
 8048e7c:	e8 f0 04 00 00       	call   8049371 <explode_bomb>
 8048e81:	ba 00 00 00 00       	mov    $0x0,%edx
 8048e86:	b9 00 00 00 00       	mov    $0x0,%ecx
 8048e8b:	0f be 04 1a          	movsbl (%edx,%ebx,1),%eax
 8048e8f:	83 e0 0f             	and    $0xf,%eax
 8048e92:	03 0c 85 80 9a 04 08 	add    0x8049a80(,%eax,4),%ecx
 8048e99:	83 c2 01             	add    $0x1,%edx
 8048e9c:	83 fa 06             	cmp    $0x6,%edx
 8048e9f:	75 ea                	jne    8048e8b <phase_5+0x26>
 8048ea1:	83 f9 25             	cmp    $0x25,%ecx
 8048ea4:	74 05                	je     8048eab <phase_5+0x46>
 8048ea6:	e8 c6 04 00 00       	call   8049371 <explode_bomb>
 8048eab:	83 c4 04             	add    $0x4,%esp
 8048eae:	5b                   	pop    %ebx
 8048eaf:	5d                   	pop    %ebp
 8048eb0:	c3                   	ret    

08048eb1 <phase_4>:
 8048eb1:	55                   	push   %ebp
 8048eb2:	89 e5                	mov    %esp,%ebp
 8048eb4:	83 ec 28             	sub    $0x28,%esp
 8048eb7:	8d 45 fc             	lea    -0x4(%ebp),%eax
 8048eba:	89 44 24 08          	mov    %eax,0x8(%esp)
 8048ebe:	c7 44 24 04 3b 9c 04 	movl   $0x8049c3b,0x4(%esp)
 8048ec5:	08 
 8048ec6:	8b 45 08             	mov    0x8(%ebp),%eax
 8048ec9:	89 04 24             	mov    %eax,(%esp)
 8048ecc:	e8 9b fa ff ff       	call   804896c <sscanf@plt>
 8048ed1:	83 f8 01             	cmp    $0x1,%eax
 8048ed4:	75 06                	jne    8048edc <phase_4+0x2b>
 8048ed6:	83 7d fc 00          	cmpl   $0x0,-0x4(%ebp)
 8048eda:	7f 09                	jg     8048ee5 <phase_4+0x34>
 8048edc:	8d 74 26 00          	lea    0x0(%esi,%eiz,1),%esi
 8048ee0:	e8 8c 04 00 00       	call   8049371 <explode_bomb>
 8048ee5:	8b 45 fc             	mov    -0x4(%ebp),%eax
 8048ee8:	89 04 24             	mov    %eax,(%esp)
 8048eeb:	e8 40 fd ff ff       	call   8048c30 <func4>
 8048ef0:	3d 91 cb 01 00       	cmp    $0x1cb91,%eax
 8048ef5:	74 05                	je     8048efc <phase_4+0x4b>
 8048ef7:	e8 75 04 00 00       	call   8049371 <explode_bomb>
 8048efc:	c9                   	leave  
 8048efd:	8d 76 00             	lea    0x0(%esi),%esi
 8048f00:	c3                   	ret    

08048f01 <phase_3>:
 8048f01:	55                   	push   %ebp
 8048f02:	89 e5                	mov    %esp,%ebp
 8048f04:	83 ec 28             	sub    $0x28,%esp
 8048f07:	8d 45 f8             	lea    -0x8(%ebp),%eax
 8048f0a:	89 44 24 0c          	mov    %eax,0xc(%esp)
 8048f0e:	8d 45 fc             	lea    -0x4(%ebp),%eax
 8048f11:	89 44 24 08          	mov    %eax,0x8(%esp)
 8048f15:	c7 44 24 04 38 9c 04 	movl   $0x8049c38,0x4(%esp)
 8048f1c:	08 
 8048f1d:	8b 45 08             	mov    0x8(%ebp),%eax
 8048f20:	89 04 24             	mov    %eax,(%esp)
 8048f23:	e8 44 fa ff ff       	call   804896c <sscanf@plt>
 8048f28:	83 f8 01             	cmp    $0x1,%eax
 8048f2b:	7f 05                	jg     8048f32 <phase_3+0x31>
 8048f2d:	e8 3f 04 00 00       	call   8049371 <explode_bomb>
 8048f32:	83 7d fc 07          	cmpl   $0x7,-0x4(%ebp)
 8048f36:	77 4a                	ja     8048f82 <phase_3+0x81>
 8048f38:	8b 45 fc             	mov    -0x4(%ebp),%eax
 8048f3b:	ff 24 85 60 9a 04 08 	jmp    *0x8049a60(,%eax,4)
 8048f42:	b8 c0 02 00 00       	mov    $0x2c0,%eax
 8048f47:	eb 43                	jmp    8048f8c <phase_3+0x8b>
 8048f49:	b8 99 00 00 00       	mov    $0x99,%eax
 8048f4e:	89 f6                	mov    %esi,%esi
 8048f50:	eb 3a                	jmp    8048f8c <phase_3+0x8b>
 8048f52:	b8 3d 00 00 00       	mov    $0x3d,%eax
 8048f57:	eb 33                	jmp    8048f8c <phase_3+0x8b>
 8048f59:	b8 b7 01 00 00       	mov    $0x1b7,%eax
 8048f5e:	89 f6                	mov    %esi,%esi
 8048f60:	eb 2a                	jmp    8048f8c <phase_3+0x8b>
 8048f62:	b8 a4 00 00 00       	mov    $0xa4,%eax
 8048f67:	eb 23                	jmp    8048f8c <phase_3+0x8b>
 8048f69:	b8 bb 01 00 00       	mov    $0x1bb,%eax
 8048f6e:	89 f6                	mov    %esi,%esi
 8048f70:	eb 1a                	jmp    8048f8c <phase_3+0x8b>
 8048f72:	b8 5a 01 00 00       	mov    $0x15a,%eax
 8048f77:	eb 13                	jmp    8048f8c <phase_3+0x8b>
 8048f79:	b8 7f 02 00 00       	mov    $0x27f,%eax
 8048f7e:	89 f6                	mov    %esi,%esi
 8048f80:	eb 0a                	jmp    8048f8c <phase_3+0x8b>
 8048f82:	e8 ea 03 00 00       	call   8049371 <explode_bomb>
 8048f87:	b8 00 00 00 00       	mov    $0x0,%eax
 8048f8c:	3b 45 f8             	cmp    -0x8(%ebp),%eax
 8048f8f:	90                   	nop
 8048f90:	74 05                	je     8048f97 <phase_3+0x96>
 8048f92:	e8 da 03 00 00       	call   8049371 <explode_bomb>
 8048f97:	c9                   	leave  
 8048f98:	c3                   	ret    

08048f99 <phase_1>:
 8048f99:	55                   	push   %ebp
 8048f9a:	89 e5                	mov    %esp,%ebp
 8048f9c:	83 ec 08             	sub    $0x8,%esp
 8048f9f:	c7 44 24 04 0c 9a 04 	movl   $0x8049a0c,0x4(%esp)
 8048fa6:	08 
 8048fa7:	8b 45 08             	mov    0x8(%ebp),%eax
 8048faa:	89 04 24             	mov    %eax,(%esp)
 8048fad:	e8 3e 00 00 00       	call   8048ff0 <strings_not_equal>
 8048fb2:	85 c0                	test   %eax,%eax
 8048fb4:	74 05                	je     8048fbb <phase_1+0x22>
 8048fb6:	e8 b6 03 00 00       	call   8049371 <explode_bomb>
 8048fbb:	c9                   	leave  
 8048fbc:	8d 74 26 00          	lea    0x0(%esi,%eiz,1),%esi
 8048fc0:	c3                   	ret    
 8048fc1:	90                   	nop
 8048fc2:	90                   	nop
 8048fc3:	90                   	nop
 8048fc4:	90                   	nop
 8048fc5:	90                   	nop
 8048fc6:	90                   	nop
 8048fc7:	90                   	nop
 8048fc8:	90                   	nop
 8048fc9:	90                   	nop
 8048fca:	90                   	nop
 8048fcb:	90                   	nop
 8048fcc:	90                   	nop
 8048fcd:	90                   	nop
 8048fce:	90                   	nop
 8048fcf:	90                   	nop

08048fd0 <string_length>:
 8048fd0:	55                   	push   %ebp
 8048fd1:	89 e5                	mov    %esp,%ebp
 8048fd3:	8b 55 08             	mov    0x8(%ebp),%edx
 8048fd6:	b8 00 00 00 00       	mov    $0x0,%eax
 8048fdb:	80 3a 00             	cmpb   $0x0,(%edx)
 8048fde:	74 0e                	je     8048fee <string_length+0x1e>
 8048fe0:	b8 00 00 00 00       	mov    $0x0,%eax
 8048fe5:	83 c0 01             	add    $0x1,%eax
 8048fe8:	80 3c 10 00          	cmpb   $0x0,(%eax,%edx,1)
 8048fec:	75 f7                	jne    8048fe5 <string_length+0x15>
 8048fee:	5d                   	pop    %ebp
 8048fef:	c3                   	ret    

08048ff0 <strings_not_equal>:
 8048ff0:	55                   	push   %ebp
 8048ff1:	89 e5                	mov    %esp,%ebp
 8048ff3:	57                   	push   %edi
 8048ff4:	56                   	push   %esi
 8048ff5:	53                   	push   %ebx
 8048ff6:	83 ec 04             	sub    $0x4,%esp
 8048ff9:	8b 75 08             	mov    0x8(%ebp),%esi
 8048ffc:	8b 7d 0c             	mov    0xc(%ebp),%edi
 8048fff:	89 34 24             	mov    %esi,(%esp)
 8049002:	e8 c9 ff ff ff       	call   8048fd0 <string_length>
 8049007:	89 c3                	mov    %eax,%ebx
 8049009:	89 3c 24             	mov    %edi,(%esp)
 804900c:	e8 bf ff ff ff       	call   8048fd0 <string_length>
 8049011:	39 c3                	cmp    %eax,%ebx
 8049013:	75 29                	jne    804903e <strings_not_equal+0x4e>
 8049015:	0f b6 06             	movzbl (%esi),%eax
 8049018:	84 c0                	test   %al,%al
 804901a:	74 29                	je     8049045 <strings_not_equal+0x55>
 804901c:	89 f1                	mov    %esi,%ecx
 804901e:	89 fa                	mov    %edi,%edx
 8049020:	3a 07                	cmp    (%edi),%al
 8049022:	74 10                	je     8049034 <strings_not_equal+0x44>
 8049024:	eb 18                	jmp    804903e <strings_not_equal+0x4e>
 8049026:	0f b6 42 01          	movzbl 0x1(%edx),%eax
 804902a:	83 c1 01             	add    $0x1,%ecx
 804902d:	83 c2 01             	add    $0x1,%edx
 8049030:	38 c3                	cmp    %al,%bl
 8049032:	75 0a                	jne    804903e <strings_not_equal+0x4e>
 8049034:	0f b6 59 01          	movzbl 0x1(%ecx),%ebx
 8049038:	84 db                	test   %bl,%bl
 804903a:	75 ea                	jne    8049026 <strings_not_equal+0x36>
 804903c:	eb 07                	jmp    8049045 <strings_not_equal+0x55>
 804903e:	b8 01 00 00 00       	mov    $0x1,%eax
 8049043:	eb 05                	jmp    804904a <strings_not_equal+0x5a>
 8049045:	b8 00 00 00 00       	mov    $0x0,%eax
 804904a:	83 c4 04             	add    $0x4,%esp
 804904d:	5b                   	pop    %ebx
 804904e:	5e                   	pop    %esi
 804904f:	5f                   	pop    %edi
 8049050:	5d                   	pop    %ebp
 8049051:	c3                   	ret    

08049052 <send_msg>:
 8049052:	55                   	push   %ebp
 8049053:	89 e5                	mov    %esp,%ebp
 8049055:	57                   	push   %edi
 8049056:	56                   	push   %esi
 8049057:	53                   	push   %ebx
 8049058:	81 ec 8c 00 00 00    	sub    $0x8c,%esp
 804905e:	65 a1 14 00 00 00    	mov    %gs:0x14,%eax
 8049064:	89 45 f0             	mov    %eax,-0x10(%ebp)
 8049067:	31 c0                	xor    %eax,%eax
 8049069:	c7 04 24 00 00 00 00 	movl   $0x0,(%esp)
 8049070:	e8 27 f9 ff ff       	call   804899c <dup@plt>
 8049075:	89 45 90             	mov    %eax,-0x70(%ebp)
 8049078:	83 f8 ff             	cmp    $0xffffffff,%eax
 804907b:	75 18                	jne    8049095 <send_msg+0x43>
 804907d:	c7 04 24 c0 9a 04 08 	movl   $0x8049ac0,(%esp)
 8049084:	e8 13 f8 ff ff       	call   804889c <puts@plt>
 8049089:	c7 04 24 08 00 00 00 	movl   $0x8,(%esp)
 8049090:	e8 c7 f8 ff ff       	call   804895c <exit@plt>
 8049095:	c7 04 24 00 00 00 00 	movl   $0x0,(%esp)
 804909c:	e8 6b f7 ff ff       	call   804880c <close@plt>
 80490a1:	83 f8 ff             	cmp    $0xffffffff,%eax
 80490a4:	75 18                	jne    80490be <send_msg+0x6c>
 80490a6:	c7 04 24 d4 9a 04 08 	movl   $0x8049ad4,(%esp)
 80490ad:	e8 ea f7 ff ff       	call   804889c <puts@plt>
 80490b2:	c7 04 24 08 00 00 00 	movl   $0x8,(%esp)
 80490b9:	e8 9e f8 ff ff       	call   804895c <exit@plt>
 80490be:	e8 69 f7 ff ff       	call   804882c <tmpfile@plt>
 80490c3:	89 c7                	mov    %eax,%edi
 80490c5:	85 c0                	test   %eax,%eax
 80490c7:	75 18                	jne    80490e1 <send_msg+0x8f>
 80490c9:	c7 04 24 e7 9a 04 08 	movl   $0x8049ae7,(%esp)
 80490d0:	e8 c7 f7 ff ff       	call   804889c <puts@plt>
 80490d5:	c7 04 24 08 00 00 00 	movl   $0x8,(%esp)
 80490dc:	e8 7b f8 ff ff       	call   804895c <exit@plt>
 80490e1:	89 44 24 0c          	mov    %eax,0xc(%esp)
 80490e5:	c7 44 24 08 1b 00 00 	movl   $0x1b,0x8(%esp)
 80490ec:	00 
 80490ed:	c7 44 24 04 01 00 00 	movl   $0x1,0x4(%esp)
 80490f4:	00 
 80490f5:	c7 04 24 fc 9a 04 08 	movl   $0x8049afc,(%esp)
 80490fc:	e8 bb f8 ff ff       	call   80489bc <fwrite@plt>
 8049101:	89 7c 24 04          	mov    %edi,0x4(%esp)
 8049105:	c7 04 24 0a 00 00 00 	movl   $0xa,(%esp)
 804910c:	e8 cb f7 ff ff       	call   80488dc <fputc@plt>
 8049111:	c7 04 24 00 00 00 00 	movl   $0x0,(%esp)
 8049118:	e8 cf f8 ff ff       	call   80489ec <cuserid@plt>
 804911d:	85 c0                	test   %eax,%eax
 804911f:	75 13                	jne    8049134 <send_msg+0xe2>
 8049121:	c7 45 a0 6e 6f 62 6f 	movl   $0x6f626f6e,-0x60(%ebp)
 8049128:	66 c7 45 a4 64 79    	movw   $0x7964,-0x5c(%ebp)
 804912e:	c6 45 a6 00          	movb   $0x0,-0x5a(%ebp)
 8049132:	eb 0f                	jmp    8049143 <send_msg+0xf1>
 8049134:	89 44 24 04          	mov    %eax,0x4(%esp)
 8049138:	8d 45 a0             	lea    -0x60(%ebp),%eax
 804913b:	89 04 24             	mov    %eax,(%esp)
 804913e:	e8 c9 f8 ff ff       	call   8048a0c <strcpy@plt>
 8049143:	a1 0c a8 04 08       	mov    0x804a80c,%eax
 8049148:	ba 18 9b 04 08       	mov    $0x8049b18,%edx
 804914d:	83 7d 08 00          	cmpl   $0x0,0x8(%ebp)
 8049151:	75 05                	jne    8049158 <send_msg+0x106>
 8049153:	ba 20 9b 04 08       	mov    $0x8049b20,%edx
 8049158:	89 44 24 18          	mov    %eax,0x18(%esp)
 804915c:	89 54 24 14          	mov    %edx,0x14(%esp)
 8049160:	8d 45 a0             	lea    -0x60(%ebp),%eax
 8049163:	89 44 24 10          	mov    %eax,0x10(%esp)
 8049167:	a1 a0 a1 04 08       	mov    0x804a1a0,%eax
 804916c:	89 44 24 0c          	mov    %eax,0xc(%esp)
 8049170:	c7 44 24 08 c0 a1 04 	movl   $0x804a1c0,0x8(%esp)
 8049177:	08 
 8049178:	c7 44 24 04 29 9b 04 	movl   $0x8049b29,0x4(%esp)
 804917f:	08 
 8049180:	89 3c 24             	mov    %edi,(%esp)
 8049183:	e8 94 f6 ff ff       	call   804881c <fprintf@plt>
 8049188:	83 3d 0c a8 04 08 00 	cmpl   $0x0,0x804a80c
 804918f:	7e 48                	jle    80491d9 <send_msg+0x187>
 8049191:	be 20 a8 04 08       	mov    $0x804a820,%esi
 8049196:	bb 00 00 00 00       	mov    $0x0,%ebx
 804919b:	83 c3 01             	add    $0x1,%ebx
 804919e:	89 74 24 18          	mov    %esi,0x18(%esp)
 80491a2:	89 5c 24 14          	mov    %ebx,0x14(%esp)
 80491a6:	8d 45 a0             	lea    -0x60(%ebp),%eax
 80491a9:	89 44 24 10          	mov    %eax,0x10(%esp)
 80491ad:	a1 a0 a1 04 08       	mov    0x804a1a0,%eax
 80491b2:	89 44 24 0c          	mov    %eax,0xc(%esp)
 80491b6:	c7 44 24 08 c0 a1 04 	movl   $0x804a1c0,0x8(%esp)
 80491bd:	08 
 80491be:	c7 44 24 04 45 9b 04 	movl   $0x8049b45,0x4(%esp)
 80491c5:	08 
 80491c6:	89 3c 24             	mov    %edi,(%esp)
 80491c9:	e8 4e f6 ff ff       	call   804881c <fprintf@plt>
 80491ce:	83 c6 50             	add    $0x50,%esi
 80491d1:	39 1d 0c a8 04 08    	cmp    %ebx,0x804a80c
 80491d7:	7f c2                	jg     804919b <send_msg+0x149>
 80491d9:	89 3c 24             	mov    %edi,(%esp)
 80491dc:	e8 9b f6 ff ff       	call   804887c <rewind@plt>
 80491e1:	c7 44 24 10 61 9b 04 	movl   $0x8049b61,0x10(%esp)
 80491e8:	08 
 80491e9:	c7 44 24 0c 6f 9b 04 	movl   $0x8049b6f,0xc(%esp)
 80491f0:	08 
 80491f1:	c7 44 24 08 74 9b 04 	movl   $0x8049b74,0x8(%esp)
 80491f8:	08 
 80491f9:	c7 44 24 04 8b 9b 04 	movl   $0x8049b8b,0x4(%esp)
 8049200:	08 
 8049201:	c7 04 24 60 ae 04 08 	movl   $0x804ae60,(%esp)
 8049208:	e8 9f f7 ff ff       	call   80489ac <sprintf@plt>
 804920d:	c7 04 24 60 ae 04 08 	movl   $0x804ae60,(%esp)
 8049214:	e8 73 f6 ff ff       	call   804888c <system@plt>
 8049219:	85 c0                	test   %eax,%eax
 804921b:	74 18                	je     8049235 <send_msg+0x1e3>
 804921d:	c7 04 24 94 9b 04 08 	movl   $0x8049b94,(%esp)
 8049224:	e8 73 f6 ff ff       	call   804889c <puts@plt>
 8049229:	c7 04 24 08 00 00 00 	movl   $0x8,(%esp)
 8049230:	e8 27 f7 ff ff       	call   804895c <exit@plt>
 8049235:	89 3c 24             	mov    %edi,(%esp)
 8049238:	e8 df f6 ff ff       	call   804891c <fclose@plt>
 804923d:	85 c0                	test   %eax,%eax
 804923f:	74 18                	je     8049259 <send_msg+0x207>
 8049241:	c7 04 24 ae 9b 04 08 	movl   $0x8049bae,(%esp)
 8049248:	e8 4f f6 ff ff       	call   804889c <puts@plt>
 804924d:	c7 04 24 08 00 00 00 	movl   $0x8,(%esp)
 8049254:	e8 03 f7 ff ff       	call   804895c <exit@plt>
 8049259:	8b 45 90             	mov    -0x70(%ebp),%eax
 804925c:	89 04 24             	mov    %eax,(%esp)
 804925f:	e8 38 f7 ff ff       	call   804899c <dup@plt>
 8049264:	85 c0                	test   %eax,%eax
 8049266:	74 18                	je     8049280 <send_msg+0x22e>
 8049268:	c7 04 24 c7 9b 04 08 	movl   $0x8049bc7,(%esp)
 804926f:	e8 28 f6 ff ff       	call   804889c <puts@plt>
 8049274:	c7 04 24 08 00 00 00 	movl   $0x8,(%esp)
 804927b:	e8 dc f6 ff ff       	call   804895c <exit@plt>
 8049280:	8b 45 90             	mov    -0x70(%ebp),%eax
 8049283:	89 04 24             	mov    %eax,(%esp)
 8049286:	e8 81 f5 ff ff       	call   804880c <close@plt>
 804928b:	85 c0                	test   %eax,%eax
 804928d:	74 18                	je     80492a7 <send_msg+0x255>
 804928f:	c7 04 24 e2 9b 04 08 	movl   $0x8049be2,(%esp)
 8049296:	e8 01 f6 ff ff       	call   804889c <puts@plt>
 804929b:	c7 04 24 08 00 00 00 	movl   $0x8,(%esp)
 80492a2:	e8 b5 f6 ff ff       	call   804895c <exit@plt>
 80492a7:	8b 45 f0             	mov    -0x10(%ebp),%eax
 80492aa:	65 33 05 14 00 00 00 	xor    %gs:0x14,%eax
 80492b1:	74 05                	je     80492b8 <send_msg+0x266>
 80492b3:	e8 34 f6 ff ff       	call   80488ec <__stack_chk_fail@plt>
 80492b8:	81 c4 8c 00 00 00    	add    $0x8c,%esp
 80492be:	5b                   	pop    %ebx
 80492bf:	5e                   	pop    %esi
 80492c0:	5f                   	pop    %edi
 80492c1:	5d                   	pop    %ebp
 80492c2:	c3                   	ret    

080492c3 <phase_defused>:
 80492c3:	55                   	push   %ebp
 80492c4:	89 e5                	mov    %esp,%ebp
 80492c6:	53                   	push   %ebx
 80492c7:	83 ec 74             	sub    $0x74,%esp
 80492ca:	65 a1 14 00 00 00    	mov    %gs:0x14,%eax
 80492d0:	89 45 f8             	mov    %eax,-0x8(%ebp)
 80492d3:	31 c0                	xor    %eax,%eax
 80492d5:	c7 04 24 01 00 00 00 	movl   $0x1,(%esp)
 80492dc:	e8 71 fd ff ff       	call   8049052 <send_msg>
 80492e1:	83 3d 0c a8 04 08 06 	cmpl   $0x6,0x804a80c
 80492e8:	75 70                	jne    804935a <phase_defused+0x97>
 80492ea:	8d 5d a8             	lea    -0x58(%ebp),%ebx
 80492ed:	89 5c 24 0c          	mov    %ebx,0xc(%esp)
 80492f1:	8d 45 a4             	lea    -0x5c(%ebp),%eax
 80492f4:	89 44 24 08          	mov    %eax,0x8(%esp)
 80492f8:	c7 44 24 04 f9 9b 04 	movl   $0x8049bf9,0x4(%esp)
 80492ff:	08 
 8049300:	c7 04 24 10 a9 04 08 	movl   $0x804a910,(%esp)
 8049307:	e8 60 f6 ff ff       	call   804896c <sscanf@plt>
 804930c:	83 f8 02             	cmp    $0x2,%eax
 804930f:	75 31                	jne    8049342 <phase_defused+0x7f>
 8049311:	c7 44 24 04 ff 9b 04 	movl   $0x8049bff,0x4(%esp)
 8049318:	08 
 8049319:	89 1c 24             	mov    %ebx,(%esp)
 804931c:	e8 cf fc ff ff       	call   8048ff0 <strings_not_equal>
 8049321:	85 c0                	test   %eax,%eax
 8049323:	75 1d                	jne    8049342 <phase_defused+0x7f>
 8049325:	c7 04 24 f4 9c 04 08 	movl   $0x8049cf4,(%esp)
 804932c:	e8 6b f5 ff ff       	call   804889c <puts@plt>
 8049331:	c7 04 24 1c 9d 04 08 	movl   $0x8049d1c,(%esp)
 8049338:	e8 5f f5 ff ff       	call   804889c <puts@plt>
 804933d:	e8 69 f9 ff ff       	call   8048cab <secret_phase>
 8049342:	c7 04 24 54 9d 04 08 	movl   $0x8049d54,(%esp)
 8049349:	e8 4e f5 ff ff       	call   804889c <puts@plt>
 804934e:	c7 04 24 80 9d 04 08 	movl   $0x8049d80,(%esp)
 8049355:	e8 42 f5 ff ff       	call   804889c <puts@plt>
 804935a:	8b 45 f8             	mov    -0x8(%ebp),%eax
 804935d:	65 33 05 14 00 00 00 	xor    %gs:0x14,%eax
 8049364:	74 05                	je     804936b <phase_defused+0xa8>
 8049366:	e8 81 f5 ff ff       	call   80488ec <__stack_chk_fail@plt>
 804936b:	83 c4 74             	add    $0x74,%esp
 804936e:	5b                   	pop    %ebx
 804936f:	5d                   	pop    %ebp
 8049370:	c3                   	ret    

08049371 <explode_bomb>:
 8049371:	55                   	push   %ebp
 8049372:	89 e5                	mov    %esp,%ebp
 8049374:	83 ec 08             	sub    $0x8,%esp
 8049377:	c7 04 24 0c 9c 04 08 	movl   $0x8049c0c,(%esp)
 804937e:	e8 19 f5 ff ff       	call   804889c <puts@plt>
 8049383:	c7 04 24 15 9c 04 08 	movl   $0x8049c15,(%esp)
 804938a:	e8 0d f5 ff ff       	call   804889c <puts@plt>
 804938f:	c7 04 24 00 00 00 00 	movl   $0x0,(%esp)
 8049396:	e8 b7 fc ff ff       	call   8049052 <send_msg>
 804939b:	c7 04 24 c4 9d 04 08 	movl   $0x8049dc4,(%esp)
 80493a2:	e8 f5 f4 ff ff       	call   804889c <puts@plt>
 80493a7:	c7 04 24 08 00 00 00 	movl   $0x8,(%esp)
 80493ae:	e8 a9 f5 ff ff       	call   804895c <exit@plt>

080493b3 <read_six_numbers>:
 80493b3:	55                   	push   %ebp
 80493b4:	89 e5                	mov    %esp,%ebp
 80493b6:	83 ec 28             	sub    $0x28,%esp
 80493b9:	8b 55 0c             	mov    0xc(%ebp),%edx
 80493bc:	8d 42 14             	lea    0x14(%edx),%eax
 80493bf:	89 44 24 1c          	mov    %eax,0x1c(%esp)
 80493c3:	8d 42 10             	lea    0x10(%edx),%eax
 80493c6:	89 44 24 18          	mov    %eax,0x18(%esp)
 80493ca:	8d 42 0c             	lea    0xc(%edx),%eax
 80493cd:	89 44 24 14          	mov    %eax,0x14(%esp)
 80493d1:	8d 42 08             	lea    0x8(%edx),%eax
 80493d4:	89 44 24 10          	mov    %eax,0x10(%esp)
 80493d8:	8d 42 04             	lea    0x4(%edx),%eax
 80493db:	89 44 24 0c          	mov    %eax,0xc(%esp)
 80493df:	89 54 24 08          	mov    %edx,0x8(%esp)
 80493e3:	c7 44 24 04 2c 9c 04 	movl   $0x8049c2c,0x4(%esp)
 80493ea:	08 
 80493eb:	8b 45 08             	mov    0x8(%ebp),%eax
 80493ee:	89 04 24             	mov    %eax,(%esp)
 80493f1:	e8 76 f5 ff ff       	call   804896c <sscanf@plt>
 80493f6:	83 f8 05             	cmp    $0x5,%eax
 80493f9:	7f 05                	jg     8049400 <read_six_numbers+0x4d>
 80493fb:	e8 71 ff ff ff       	call   8049371 <explode_bomb>
 8049400:	c9                   	leave  
 8049401:	c3                   	ret    

08049402 <blank_line>:
 8049402:	55                   	push   %ebp
 8049403:	89 e5                	mov    %esp,%ebp
 8049405:	56                   	push   %esi
 8049406:	53                   	push   %ebx
 8049407:	8b 75 08             	mov    0x8(%ebp),%esi
 804940a:	eb 1b                	jmp    8049427 <blank_line+0x25>
 804940c:	e8 cb f5 ff ff       	call   80489dc <__ctype_b_loc@plt>
 8049411:	0f be d3             	movsbl %bl,%edx
 8049414:	8b 00                	mov    (%eax),%eax
 8049416:	f6 44 50 01 20       	testb  $0x20,0x1(%eax,%edx,2)
 804941b:	75 07                	jne    8049424 <blank_line+0x22>
 804941d:	b8 00 00 00 00       	mov    $0x0,%eax
 8049422:	eb 0f                	jmp    8049433 <blank_line+0x31>
 8049424:	83 c6 01             	add    $0x1,%esi
 8049427:	0f b6 1e             	movzbl (%esi),%ebx
 804942a:	84 db                	test   %bl,%bl
 804942c:	75 de                	jne    804940c <blank_line+0xa>
 804942e:	b8 01 00 00 00       	mov    $0x1,%eax
 8049433:	5b                   	pop    %ebx
 8049434:	5e                   	pop    %esi
 8049435:	5d                   	pop    %ebp
 8049436:	c3                   	ret    

08049437 <skip>:
 8049437:	55                   	push   %ebp
 8049438:	89 e5                	mov    %esp,%ebp
 804943a:	53                   	push   %ebx
 804943b:	83 ec 14             	sub    $0x14,%esp
 804943e:	a1 10 a8 04 08       	mov    0x804a810,%eax
 8049443:	89 44 24 08          	mov    %eax,0x8(%esp)
 8049447:	c7 44 24 04 50 00 00 	movl   $0x50,0x4(%esp)
 804944e:	00 
 804944f:	a1 0c a8 04 08       	mov    0x804a80c,%eax
 8049454:	8d 04 80             	lea    (%eax,%eax,4),%eax
 8049457:	c1 e0 04             	shl    $0x4,%eax
 804945a:	05 20 a8 04 08       	add    $0x804a820,%eax
 804945f:	89 04 24             	mov    %eax,(%esp)
 8049462:	e8 45 f4 ff ff       	call   80488ac <fgets@plt>
 8049467:	89 c3                	mov    %eax,%ebx
 8049469:	85 c0                	test   %eax,%eax
 804946b:	74 0c                	je     8049479 <skip+0x42>
 804946d:	89 04 24             	mov    %eax,(%esp)
 8049470:	e8 8d ff ff ff       	call   8049402 <blank_line>
 8049475:	85 c0                	test   %eax,%eax
 8049477:	75 c5                	jne    804943e <skip+0x7>
 8049479:	89 d8                	mov    %ebx,%eax
 804947b:	83 c4 14             	add    $0x14,%esp
 804947e:	5b                   	pop    %ebx
 804947f:	5d                   	pop    %ebp
 8049480:	c3                   	ret    

08049481 <read_line>:
 8049481:	55                   	push   %ebp
 8049482:	89 e5                	mov    %esp,%ebp
 8049484:	57                   	push   %edi
 8049485:	83 ec 04             	sub    $0x4,%esp
 8049488:	e8 aa ff ff ff       	call   8049437 <skip>
 804948d:	85 c0                	test   %eax,%eax
 804948f:	75 60                	jne    80494f1 <read_line+0x70>
 8049491:	a1 10 a8 04 08       	mov    0x804a810,%eax
 8049496:	3b 05 04 a8 04 08    	cmp    0x804a804,%eax
 804949c:	75 13                	jne    80494b1 <read_line+0x30>
 804949e:	c7 04 24 3e 9c 04 08 	movl   $0x8049c3e,(%esp)
 80494a5:	e8 f2 f3 ff ff       	call   804889c <puts@plt>
 80494aa:	e8 c2 fe ff ff       	call   8049371 <explode_bomb>
 80494af:	eb 40                	jmp    80494f1 <read_line+0x70>
 80494b1:	c7 04 24 5c 9c 04 08 	movl   $0x8049c5c,(%esp)
 80494b8:	e8 7f f3 ff ff       	call   804883c <getenv@plt>
 80494bd:	85 c0                	test   %eax,%eax
 80494bf:	74 0c                	je     80494cd <read_line+0x4c>
 80494c1:	c7 04 24 00 00 00 00 	movl   $0x0,(%esp)
 80494c8:	e8 8f f4 ff ff       	call   804895c <exit@plt>
 80494cd:	a1 04 a8 04 08       	mov    0x804a804,%eax
 80494d2:	a3 10 a8 04 08       	mov    %eax,0x804a810
 80494d7:	e8 5b ff ff ff       	call   8049437 <skip>
 80494dc:	85 c0                	test   %eax,%eax
 80494de:	75 11                	jne    80494f1 <read_line+0x70>
 80494e0:	c7 04 24 3e 9c 04 08 	movl   $0x8049c3e,(%esp)
 80494e7:	e8 b0 f3 ff ff       	call   804889c <puts@plt>
 80494ec:	e8 80 fe ff ff       	call   8049371 <explode_bomb>
 80494f1:	a1 0c a8 04 08       	mov    0x804a80c,%eax
 80494f6:	8d 04 80             	lea    (%eax,%eax,4),%eax
 80494f9:	c1 e0 04             	shl    $0x4,%eax
 80494fc:	8d b8 20 a8 04 08    	lea    0x804a820(%eax),%edi
 8049502:	fc                   	cld    
 8049503:	b9 ff ff ff ff       	mov    $0xffffffff,%ecx
 8049508:	b8 00 00 00 00       	mov    $0x0,%eax
 804950d:	f2 ae                	repnz scas %es:(%edi),%al
 804950f:	f7 d1                	not    %ecx
 8049511:	8d 79 ff             	lea    -0x1(%ecx),%edi
 8049514:	83 ff 4f             	cmp    $0x4f,%edi
 8049517:	75 11                	jne    804952a <read_line+0xa9>
 8049519:	c7 04 24 67 9c 04 08 	movl   $0x8049c67,(%esp)
 8049520:	e8 77 f3 ff ff       	call   804889c <puts@plt>
 8049525:	e8 47 fe ff ff       	call   8049371 <explode_bomb>
 804952a:	8b 15 0c a8 04 08    	mov    0x804a80c,%edx
 8049530:	8d 04 92             	lea    (%edx,%edx,4),%eax
 8049533:	c1 e0 04             	shl    $0x4,%eax
 8049536:	05 20 a8 04 08       	add    $0x804a820,%eax
 804953b:	c6 44 38 ff 00       	movb   $0x0,-0x1(%eax,%edi,1)
 8049540:	83 c2 01             	add    $0x1,%edx
 8049543:	89 15 0c a8 04 08    	mov    %edx,0x804a80c
 8049549:	83 c4 04             	add    $0x4,%esp
 804954c:	5f                   	pop    %edi
 804954d:	5d                   	pop    %ebp
 804954e:	c3                   	ret    

0804954f <invalid_phase>:
 804954f:	55                   	push   %ebp
 8049550:	89 e5                	mov    %esp,%ebp
 8049552:	83 ec 08             	sub    $0x8,%esp
 8049555:	8b 45 08             	mov    0x8(%ebp),%eax
 8049558:	89 44 24 04          	mov    %eax,0x4(%esp)
 804955c:	c7 04 24 82 9c 04 08 	movl   $0x8049c82,(%esp)
 8049563:	e8 a4 f3 ff ff       	call   804890c <printf@plt>
 8049568:	c7 04 24 08 00 00 00 	movl   $0x8,(%esp)
 804956f:	e8 e8 f3 ff ff       	call   804895c <exit@plt>

08049574 <sig_handler>:
 8049574:	55                   	push   %ebp
 8049575:	89 e5                	mov    %esp,%ebp
 8049577:	83 ec 08             	sub    $0x8,%esp
 804957a:	c7 04 24 e8 9d 04 08 	movl   $0x8049de8,(%esp)
 8049581:	e8 16 f3 ff ff       	call   804889c <puts@plt>
 8049586:	c7 04 24 03 00 00 00 	movl   $0x3,(%esp)
 804958d:	e8 2a f3 ff ff       	call   80488bc <sleep@plt>
 8049592:	c7 04 24 93 9c 04 08 	movl   $0x8049c93,(%esp)
 8049599:	e8 6e f3 ff ff       	call   804890c <printf@plt>
 804959e:	a1 00 a8 04 08       	mov    0x804a800,%eax
 80495a3:	89 04 24             	mov    %eax,(%esp)
 80495a6:	e8 b1 f2 ff ff       	call   804885c <fflush@plt>
 80495ab:	c7 04 24 01 00 00 00 	movl   $0x1,(%esp)
 80495b2:	e8 05 f3 ff ff       	call   80488bc <sleep@plt>
 80495b7:	c7 04 24 9b 9c 04 08 	movl   $0x8049c9b,(%esp)
 80495be:	e8 d9 f2 ff ff       	call   804889c <puts@plt>
 80495c3:	c7 04 24 10 00 00 00 	movl   $0x10,(%esp)
 80495ca:	e8 8d f3 ff ff       	call   804895c <exit@plt>

080495cf <open_clientfd>:
 80495cf:	55                   	push   %ebp
 80495d0:	89 e5                	mov    %esp,%ebp
 80495d2:	57                   	push   %edi
 80495d3:	56                   	push   %esi
 80495d4:	53                   	push   %ebx
 80495d5:	83 ec 2c             	sub    $0x2c,%esp
 80495d8:	8b 5d 08             	mov    0x8(%ebp),%ebx
 80495db:	8b 7d 0c             	mov    0xc(%ebp),%edi
 80495de:	65 a1 14 00 00 00    	mov    %gs:0x14,%eax
 80495e4:	89 45 f0             	mov    %eax,-0x10(%ebp)
 80495e7:	31 c0                	xor    %eax,%eax
 80495e9:	c7 44 24 08 00 00 00 	movl   $0x0,0x8(%esp)
 80495f0:	00 
 80495f1:	c7 44 24 04 01 00 00 	movl   $0x1,0x4(%esp)
 80495f8:	00 
 80495f9:	c7 04 24 02 00 00 00 	movl   $0x2,(%esp)
 8049600:	e8 c7 f3 ff ff       	call   80489cc <socket@plt>
 8049605:	89 c6                	mov    %eax,%esi
 8049607:	85 c0                	test   %eax,%eax
 8049609:	79 18                	jns    8049623 <open_clientfd+0x54>
 804960b:	c7 04 24 a3 9c 04 08 	movl   $0x8049ca3,(%esp)
 8049612:	e8 85 f2 ff ff       	call   804889c <puts@plt>
 8049617:	c7 04 24 08 00 00 00 	movl   $0x8,(%esp)
 804961e:	e8 39 f3 ff ff       	call   804895c <exit@plt>
 8049623:	89 1c 24             	mov    %ebx,(%esp)
 8049626:	e8 11 f3 ff ff       	call   804893c <gethostbyname@plt>
 804962b:	89 c1                	mov    %eax,%ecx
 804962d:	85 c0                	test   %eax,%eax
 804962f:	75 18                	jne    8049649 <open_clientfd+0x7a>
 8049631:	c7 04 24 b1 9c 04 08 	movl   $0x8049cb1,(%esp)
 8049638:	e8 5f f2 ff ff       	call   804889c <puts@plt>
 804963d:	c7 04 24 08 00 00 00 	movl   $0x8,(%esp)
 8049644:	e8 13 f3 ff ff       	call   804895c <exit@plt>
 8049649:	8d 5d e0             	lea    -0x20(%ebp),%ebx
 804964c:	c7 45 e0 00 00 00 00 	movl   $0x0,-0x20(%ebp)
 8049653:	c7 45 e4 00 00 00 00 	movl   $0x0,-0x1c(%ebp)
 804965a:	c7 45 e8 00 00 00 00 	movl   $0x0,-0x18(%ebp)
 8049661:	c7 45 ec 00 00 00 00 	movl   $0x0,-0x14(%ebp)
 8049668:	66 c7 45 e0 02 00    	movw   $0x2,-0x20(%ebp)
 804966e:	8d 55 e4             	lea    -0x1c(%ebp),%edx
 8049671:	8b 40 0c             	mov    0xc(%eax),%eax
 8049674:	89 44 24 08          	mov    %eax,0x8(%esp)
 8049678:	89 54 24 04          	mov    %edx,0x4(%esp)
 804967c:	8b 41 10             	mov    0x10(%ecx),%eax
 804967f:	8b 00                	mov    (%eax),%eax
 8049681:	89 04 24             	mov    %eax,(%esp)
 8049684:	e8 e3 f1 ff ff       	call   804886c <bcopy@plt>
 8049689:	89 f8                	mov    %edi,%eax
 804968b:	66 c1 c8 08          	ror    $0x8,%ax
 804968f:	66 89 45 e2          	mov    %ax,-0x1e(%ebp)
 8049693:	c7 44 24 08 10 00 00 	movl   $0x10,0x8(%esp)
 804969a:	00 
 804969b:	89 5c 24 04          	mov    %ebx,0x4(%esp)
 804969f:	89 34 24             	mov    %esi,(%esp)
 80496a2:	e8 d5 f2 ff ff       	call   804897c <connect@plt>
 80496a7:	85 c0                	test   %eax,%eax
 80496a9:	79 18                	jns    80496c3 <open_clientfd+0xf4>
 80496ab:	c7 04 24 bf 9c 04 08 	movl   $0x8049cbf,(%esp)
 80496b2:	e8 e5 f1 ff ff       	call   804889c <puts@plt>
 80496b7:	c7 04 24 08 00 00 00 	movl   $0x8,(%esp)
 80496be:	e8 99 f2 ff ff       	call   804895c <exit@plt>
 80496c3:	89 f0                	mov    %esi,%eax
 80496c5:	8b 55 f0             	mov    -0x10(%ebp),%edx
 80496c8:	65 33 15 14 00 00 00 	xor    %gs:0x14,%edx
 80496cf:	74 05                	je     80496d6 <open_clientfd+0x107>
 80496d1:	e8 16 f2 ff ff       	call   80488ec <__stack_chk_fail@plt>
 80496d6:	83 c4 2c             	add    $0x2c,%esp
 80496d9:	5b                   	pop    %ebx
 80496da:	5e                   	pop    %esi
 80496db:	5f                   	pop    %edi
 80496dc:	5d                   	pop    %ebp
 80496dd:	c3                   	ret    

080496de <initialize_bomb>:
 80496de:	55                   	push   %ebp
 80496df:	89 e5                	mov    %esp,%ebp
 80496e1:	56                   	push   %esi
 80496e2:	53                   	push   %ebx
 80496e3:	83 ec 60             	sub    $0x60,%esp
 80496e6:	65 a1 14 00 00 00    	mov    %gs:0x14,%eax
 80496ec:	89 45 f4             	mov    %eax,-0xc(%ebp)
 80496ef:	31 c0                	xor    %eax,%eax
 80496f1:	c7 44 24 04 74 95 04 	movl   $0x8049574,0x4(%esp)
 80496f8:	08 
 80496f9:	c7 04 24 02 00 00 00 	movl   $0x2,(%esp)
 8049700:	e8 47 f1 ff ff       	call   804884c <signal@plt>
 8049705:	c7 44 24 04 40 00 00 	movl   $0x40,0x4(%esp)
 804970c:	00 
 804970d:	8d 45 b4             	lea    -0x4c(%ebp),%eax
 8049710:	89 04 24             	mov    %eax,(%esp)
 8049713:	e8 14 f2 ff ff       	call   804892c <gethostname@plt>
 8049718:	85 c0                	test   %eax,%eax
 804971a:	75 13                	jne    804972f <initialize_bomb+0x51>
 804971c:	a1 c0 a6 04 08       	mov    0x804a6c0,%eax
 8049721:	bb 00 00 00 00       	mov    $0x0,%ebx
 8049726:	8d 75 b4             	lea    -0x4c(%ebp),%esi
 8049729:	85 c0                	test   %eax,%eax
 804972b:	75 1a                	jne    8049747 <initialize_bomb+0x69>
 804972d:	eb 36                	jmp    8049765 <initialize_bomb+0x87>
 804972f:	c7 04 24 cd 9c 04 08 	movl   $0x8049ccd,(%esp)
 8049736:	e8 61 f1 ff ff       	call   804889c <puts@plt>
 804973b:	c7 04 24 08 00 00 00 	movl   $0x8,(%esp)
 8049742:	e8 15 f2 ff ff       	call   804895c <exit@plt>
 8049747:	89 74 24 04          	mov    %esi,0x4(%esp)
 804974b:	89 04 24             	mov    %eax,(%esp)
 804974e:	e8 f9 f1 ff ff       	call   804894c <strcasecmp@plt>
 8049753:	85 c0                	test   %eax,%eax
 8049755:	74 26                	je     804977d <initialize_bomb+0x9f>
 8049757:	83 c3 01             	add    $0x1,%ebx
 804975a:	8b 04 9d c0 a6 04 08 	mov    0x804a6c0(,%ebx,4),%eax
 8049761:	85 c0                	test   %eax,%eax
 8049763:	75 e2                	jne    8049747 <initialize_bomb+0x69>
 8049765:	c7 04 24 e4 9c 04 08 	movl   $0x8049ce4,(%esp)
 804976c:	e8 2b f1 ff ff       	call   804889c <puts@plt>
 8049771:	c7 04 24 08 00 00 00 	movl   $0x8,(%esp)
 8049778:	e8 df f1 ff ff       	call   804895c <exit@plt>
 804977d:	c7 44 24 04 50 00 00 	movl   $0x50,0x4(%esp)
 8049784:	00 
 8049785:	c7 04 24 da 9c 04 08 	movl   $0x8049cda,(%esp)
 804978c:	e8 3e fe ff ff       	call   80495cf <open_clientfd>
 8049791:	89 04 24             	mov    %eax,(%esp)
 8049794:	e8 73 f0 ff ff       	call   804880c <close@plt>
 8049799:	8b 45 f4             	mov    -0xc(%ebp),%eax
 804979c:	65 33 05 14 00 00 00 	xor    %gs:0x14,%eax
 80497a3:	74 05                	je     80497aa <initialize_bomb+0xcc>
 80497a5:	e8 42 f1 ff ff       	call   80488ec <__stack_chk_fail@plt>
 80497aa:	83 c4 60             	add    $0x60,%esp
 80497ad:	5b                   	pop    %ebx
 80497ae:	5e                   	pop    %esi
 80497af:	5d                   	pop    %ebp
 80497b0:	c3                   	ret    
 80497b1:	90                   	nop
 80497b2:	90                   	nop
 80497b3:	90                   	nop
 80497b4:	90                   	nop
 80497b5:	90                   	nop
 80497b6:	90                   	nop
 80497b7:	90                   	nop
 80497b8:	90                   	nop
 80497b9:	90                   	nop
 80497ba:	90                   	nop
 80497bb:	90                   	nop
 80497bc:	90                   	nop
 80497bd:	90                   	nop
 80497be:	90                   	nop
 80497bf:	90                   	nop

080497c0 <__libc_csu_fini>:
 80497c0:	55                   	push   %ebp
 80497c1:	89 e5                	mov    %esp,%ebp
 80497c3:	5d                   	pop    %ebp
 80497c4:	c3                   	ret    
 80497c5:	8d 74 26 00          	lea    0x0(%esi,%eiz,1),%esi
 80497c9:	8d bc 27 00 00 00 00 	lea    0x0(%edi,%eiz,1),%edi

080497d0 <__libc_csu_init>:
 80497d0:	55                   	push   %ebp
 80497d1:	89 e5                	mov    %esp,%ebp
 80497d3:	57                   	push   %edi
 80497d4:	56                   	push   %esi
 80497d5:	53                   	push   %ebx
 80497d6:	e8 5e 00 00 00       	call   8049839 <__i686.get_pc_thunk.bx>
 80497db:	81 c3 05 09 00 00    	add    $0x905,%ebx
 80497e1:	83 ec 1c             	sub    $0x1c,%esp
 80497e4:	e8 fb ef ff ff       	call   80487e4 <_init>
 80497e9:	8d 83 20 ff ff ff    	lea    -0xe0(%ebx),%eax
 80497ef:	89 45 f0             	mov    %eax,-0x10(%ebp)
 80497f2:	8d 83 20 ff ff ff    	lea    -0xe0(%ebx),%eax
 80497f8:	29 45 f0             	sub    %eax,-0x10(%ebp)
 80497fb:	c1 7d f0 02          	sarl   $0x2,-0x10(%ebp)
 80497ff:	8b 55 f0             	mov    -0x10(%ebp),%edx
 8049802:	85 d2                	test   %edx,%edx
 8049804:	74 2b                	je     8049831 <__libc_csu_init+0x61>
 8049806:	31 ff                	xor    %edi,%edi
 8049808:	89 c6                	mov    %eax,%esi
 804980a:	8d b6 00 00 00 00    	lea    0x0(%esi),%esi
 8049810:	8b 45 10             	mov    0x10(%ebp),%eax
 8049813:	83 c7 01             	add    $0x1,%edi
 8049816:	89 44 24 08          	mov    %eax,0x8(%esp)
 804981a:	8b 45 0c             	mov    0xc(%ebp),%eax
 804981d:	89 44 24 04          	mov    %eax,0x4(%esp)
 8049821:	8b 45 08             	mov    0x8(%ebp),%eax
 8049824:	89 04 24             	mov    %eax,(%esp)
 8049827:	ff 16                	call   *(%esi)
 8049829:	83 c6 04             	add    $0x4,%esi
 804982c:	39 7d f0             	cmp    %edi,-0x10(%ebp)
 804982f:	75 df                	jne    8049810 <__libc_csu_init+0x40>
 8049831:	83 c4 1c             	add    $0x1c,%esp
 8049834:	5b                   	pop    %ebx
 8049835:	5e                   	pop    %esi
 8049836:	5f                   	pop    %edi
 8049837:	5d                   	pop    %ebp
 8049838:	c3                   	ret    

08049839 <__i686.get_pc_thunk.bx>:
 8049839:	8b 1c 24             	mov    (%esp),%ebx
 804983c:	c3                   	ret    
 804983d:	90                   	nop
 804983e:	90                   	nop
 804983f:	90                   	nop

08049840 <__do_global_ctors_aux>:
 8049840:	55                   	push   %ebp
 8049841:	89 e5                	mov    %esp,%ebp
 8049843:	53                   	push   %ebx
 8049844:	bb 00 a0 04 08       	mov    $0x804a000,%ebx
 8049849:	83 ec 04             	sub    $0x4,%esp
 804984c:	a1 00 a0 04 08       	mov    0x804a000,%eax
 8049851:	83 f8 ff             	cmp    $0xffffffff,%eax
 8049854:	74 0c                	je     8049862 <__do_global_ctors_aux+0x22>
 8049856:	83 eb 04             	sub    $0x4,%ebx
 8049859:	ff d0                	call   *%eax
 804985b:	8b 03                	mov    (%ebx),%eax
 804985d:	83 f8 ff             	cmp    $0xffffffff,%eax
 8049860:	75 f4                	jne    8049856 <__do_global_ctors_aux+0x16>
 8049862:	83 c4 04             	add    $0x4,%esp
 8049865:	5b                   	pop    %ebx
 8049866:	5d                   	pop    %ebp
 8049867:	c3                   	ret    

Disassembly of section .fini:

08049868 <_fini>:
 8049868:	55                   	push   %ebp
 8049869:	89 e5                	mov    %esp,%ebp
 804986b:	53                   	push   %ebx
 804986c:	83 ec 04             	sub    $0x4,%esp
 804986f:	e8 00 00 00 00       	call   8049874 <_fini+0xc>
 8049874:	5b                   	pop    %ebx
 8049875:	81 c3 6c 08 00 00    	add    $0x86c,%ebx
 804987b:	e8 f0 f1 ff ff       	call   8048a70 <__do_global_dtors_aux>
 8049880:	59                   	pop    %ecx
 8049881:	5b                   	pop    %ebx
 8049882:	c9                   	leave  
 8049883:	c3                   	ret    

Disassembly of section .rodata:

080498a0 <_fp_hw>:
 80498a0:	03 00                	add    (%eax),%eax
	...

080498a4 <_IO_stdin_used>:
 80498a4:	01 00                	add    %eax,(%eax)
 80498a6:	02 00                	add    (%eax),%al
 80498a8:	25 73 3a 20 45       	and    $0x45203a73,%eax
 80498ad:	72 72                	jb     8049921 <_IO_stdin_used+0x7d>
 80498af:	6f                   	outsl  %ds:(%esi),(%dx)
 80498b0:	72 3a                	jb     80498ec <_IO_stdin_used+0x48>
 80498b2:	20 43 6f             	and    %al,0x6f(%ebx)
 80498b5:	75 6c                	jne    8049923 <_IO_stdin_used+0x7f>
 80498b7:	64 6e                	outsb  %fs:(%esi),(%dx)
 80498b9:	27                   	daa    
 80498ba:	74 20                	je     80498dc <_IO_stdin_used+0x38>
 80498bc:	6f                   	outsl  %ds:(%esi),(%dx)
 80498bd:	70 65                	jo     8049924 <_IO_stdin_used+0x80>
 80498bf:	6e                   	outsb  %ds:(%esi),(%dx)
 80498c0:	20 25 73 0a 00 55    	and    %ah,0x55000a73
 80498c6:	73 61                	jae    8049929 <_IO_stdin_used+0x85>
 80498c8:	67 65 3a 20          	addr16 cmp %gs:(%bx,%si),%ah
 80498cc:	25 73 20 5b 3c       	and    $0x3c5b2073,%eax
 80498d1:	69 6e 70 75 74 5f 66 	imul   $0x665f7475,0x70(%esi),%ebp
 80498d8:	69 6c 65 3e 5d 0a 00 	imul   $0x54000a5d,0x3e(%ebp,%eiz,2),%ebp
 80498df:	54 
 80498e0:	68 61 74 27 73       	push   $0x73277461
 80498e5:	20 6e 75             	and    %ch,0x75(%esi)
 80498e8:	6d                   	insl   (%dx),%es:(%edi)
 80498e9:	62 65 72             	bound  %esp,0x72(%ebp)
 80498ec:	20 32                	and    %dh,(%edx)
 80498ee:	2e 20 20             	and    %ah,%cs:(%eax)
 80498f1:	4b                   	dec    %ebx
 80498f2:	65                   	gs
 80498f3:	65                   	gs
 80498f4:	70 20                	jo     8049916 <_IO_stdin_used+0x72>
 80498f6:	67 6f                	addr16 outsl %ds:(%si),(%dx)
 80498f8:	69 6e 67 21 00 48 61 	imul   $0x61480021,0x67(%esi),%ebp
 80498ff:	6c                   	insb   (%dx),%es:(%edi)
 8049900:	66                   	data16
 8049901:	77 61                	ja     8049964 <_IO_stdin_used+0xc0>
 8049903:	79 20                	jns    8049925 <_IO_stdin_used+0x81>
 8049905:	74 68                	je     804996f <_IO_stdin_used+0xcb>
 8049907:	65                   	gs
 8049908:	72 65                	jb     804996f <_IO_stdin_used+0xcb>
 804990a:	21 00                	and    %eax,(%eax)
 804990c:	47                   	inc    %edi
 804990d:	6f                   	outsl  %ds:(%esi),(%dx)
 804990e:	6f                   	outsl  %ds:(%esi),(%dx)
 804990f:	64 20 77 6f          	and    %dh,%fs:0x6f(%edi)
 8049913:	72 6b                	jb     8049980 <_IO_stdin_used+0xdc>
 8049915:	21 20                	and    %esp,(%eax)
 8049917:	20 4f 6e             	and    %cl,0x6e(%edi)
 804991a:	20 74 6f 20          	and    %dh,0x20(%edi,%ebp,2)
 804991e:	74 68                	je     8049988 <_IO_stdin_used+0xe4>
 8049920:	65 20 6e 65          	and    %ch,%gs:0x65(%esi)
 8049924:	78 74                	js     804999a <_IO_stdin_used+0xf6>
 8049926:	2e 2e 2e 00 00       	add    %al,%cs:(%eax)
 804992b:	00 57 65             	add    %dl,0x65(%edi)
 804992e:	6c                   	insb   (%dx),%es:(%edi)
 804992f:	63 6f 6d             	arpl   %bp,0x6d(%edi)
 8049932:	65 20 74 6f 20       	and    %dh,%gs:0x20(%edi,%ebp,2)
 8049937:	6d                   	insl   (%dx),%es:(%edi)
 8049938:	79 20                	jns    804995a <_IO_stdin_used+0xb6>
 804993a:	66 69 65 6e 64 69    	imul   $0x6964,0x6e(%ebp),%sp
 8049940:	73 68                	jae    80499aa <_IO_stdin_used+0x106>
 8049942:	20 6c 69 74          	and    %ch,0x74(%ecx,%ebp,2)
 8049946:	74 6c                	je     80499b4 <_IO_stdin_used+0x110>
 8049948:	65 20 62 6f          	and    %ah,%gs:0x6f(%edx)
 804994c:	6d                   	insl   (%dx),%es:(%edi)
 804994d:	62 2e                	bound  %ebp,(%esi)
 804994f:	20 59 6f             	and    %bl,0x6f(%ecx)
 8049952:	75 20                	jne    8049974 <_IO_stdin_used+0xd0>
 8049954:	68 61 76 65 20       	push   $0x20657661
 8049959:	36 20 70 68          	and    %dh,%ss:0x68(%eax)
 804995d:	61                   	popa   
 804995e:	73 65                	jae    80499c5 <_IO_stdin_used+0x121>
 8049960:	73 20                	jae    8049982 <_IO_stdin_used+0xde>
 8049962:	77 69                	ja     80499cd <_IO_stdin_used+0x129>
 8049964:	74 68                	je     80499ce <_IO_stdin_used+0x12a>
 8049966:	00 00                	add    %al,(%eax)
 8049968:	77 68                	ja     80499d2 <_IO_stdin_used+0x12e>
 804996a:	69 63 68 20 74 6f 20 	imul   $0x206f7420,0x68(%ebx),%esp
 8049971:	62 6c 6f 77          	bound  %ebp,0x77(%edi,%ebp,2)
 8049975:	20 79 6f             	and    %bh,0x6f(%ecx)
 8049978:	75 72                	jne    80499ec <_IO_stdin_used+0x148>
 804997a:	73 65                	jae    80499e1 <_IO_stdin_used+0x13d>
 804997c:	6c                   	insb   (%dx),%es:(%edi)
 804997d:	66                   	data16
 804997e:	20 75 70             	and    %dh,0x70(%ebp)
 8049981:	2e 20 48 61          	and    %cl,%cs:0x61(%eax)
 8049985:	76 65                	jbe    80499ec <_IO_stdin_used+0x148>
 8049987:	20 61 20             	and    %ah,0x20(%ecx)
 804998a:	6e                   	outsb  %ds:(%esi),(%dx)
 804998b:	69 63 65 20 64 61 79 	imul   $0x79616420,0x65(%ebx),%esp
 8049992:	21 00                	and    %eax,(%eax)
 8049994:	50                   	push   %eax
 8049995:	68 61 73 65 20       	push   $0x20657361
 804999a:	31 20                	xor    %esp,(%eax)
 804999c:	64                   	fs
 804999d:	65                   	gs
 804999e:	66                   	data16
 804999f:	75 73                	jne    8049a14 <_IO_stdin_used+0x170>
 80499a1:	65 64 2e 20 48 6f    	and    %cl,%cs:%fs:%gs:0x6f(%eax)
 80499a7:	77 20                	ja     80499c9 <_IO_stdin_used+0x125>
 80499a9:	61                   	popa   
 80499aa:	62 6f 75             	bound  %ebp,0x75(%edi)
 80499ad:	74 20                	je     80499cf <_IO_stdin_used+0x12b>
 80499af:	74 68                	je     8049a19 <_IO_stdin_used+0x175>
 80499b1:	65 20 6e 65          	and    %ch,%gs:0x65(%esi)
 80499b5:	78 74                	js     8049a2b <_IO_stdin_used+0x187>
 80499b7:	20 6f 6e             	and    %ch,0x6e(%edi)
 80499ba:	65                   	gs
 80499bb:	3f                   	aas    
 80499bc:	00 00                	add    %al,(%eax)
 80499be:	00 00                	add    %al,(%eax)
 80499c0:	53                   	push   %ebx
 80499c1:	6f                   	outsl  %ds:(%esi),(%dx)
 80499c2:	20 79 6f             	and    %bh,0x6f(%ecx)
 80499c5:	75 20                	jne    80499e7 <_IO_stdin_used+0x143>
 80499c7:	67 6f                	addr16 outsl %ds:(%si),(%dx)
 80499c9:	74 20                	je     80499eb <_IO_stdin_used+0x147>
 80499cb:	74 68                	je     8049a35 <_IO_stdin_used+0x191>
 80499cd:	61                   	popa   
 80499ce:	74 20                	je     80499f0 <_IO_stdin_used+0x14c>
 80499d0:	6f                   	outsl  %ds:(%esi),(%dx)
 80499d1:	6e                   	outsb  %ds:(%esi),(%dx)
 80499d2:	65 2e 20 20          	and    %ah,%cs:%gs:(%eax)
 80499d6:	54                   	push   %esp
 80499d7:	72 79                	jb     8049a52 <_IO_stdin_used+0x1ae>
 80499d9:	20 74 68 69          	and    %dh,0x69(%eax,%ebp,2)
 80499dd:	73 20                	jae    80499ff <_IO_stdin_used+0x15b>
 80499df:	6f                   	outsl  %ds:(%esi),(%dx)
 80499e0:	6e                   	outsb  %ds:(%esi),(%dx)
 80499e1:	65 2e 00 57 6f       	add    %dl,%cs:%gs:0x6f(%edi)
 80499e6:	77 21                	ja     8049a09 <_IO_stdin_used+0x165>
 80499e8:	20 59 6f             	and    %bl,0x6f(%ecx)
 80499eb:	75 27                	jne    8049a14 <_IO_stdin_used+0x170>
 80499ed:	76 65                	jbe    8049a54 <_IO_stdin_used+0x1b0>
 80499ef:	20 64 65 66          	and    %ah,0x66(%ebp,%eiz,2)
 80499f3:	75 73                	jne    8049a68 <_IO_stdin_used+0x1c4>
 80499f5:	65 64 20 74 68 65    	and    %dh,%fs:%gs:0x65(%eax,%ebp,2)
 80499fb:	20 73 65             	and    %dh,0x65(%ebx)
 80499fe:	63 72 65             	arpl   %si,0x65(%edx)
 8049a01:	74 20                	je     8049a23 <_IO_stdin_used+0x17f>
 8049a03:	73 74                	jae    8049a79 <_IO_stdin_used+0x1d5>
 8049a05:	61                   	popa   
 8049a06:	67 65 21 00          	addr16 and %eax,%gs:(%bx,%si)
 8049a0a:	00 00                	add    %al,(%eax)
 8049a0c:	49                   	dec    %ecx
 8049a0d:	20 74 75 72          	and    %dh,0x72(%ebp,%esi,2)
 8049a11:	6e                   	outsb  %ds:(%esi),(%dx)
 8049a12:	65 64 20 74 68 65    	and    %dh,%fs:%gs:0x65(%eax,%ebp,2)
 8049a18:	20 6d 6f             	and    %ch,0x6f(%ebp)
 8049a1b:	6f                   	outsl  %ds:(%esi),(%dx)
 8049a1c:	6e                   	outsb  %ds:(%esi),(%dx)
 8049a1d:	20 69 6e             	and    %ch,0x6e(%ecx)
 8049a20:	74 6f                	je     8049a91 <array.2924+0x11>
 8049a22:	20 73 6f             	and    %dh,0x6f(%ebx)
 8049a25:	6d                   	insl   (%dx),%es:(%edi)
 8049a26:	65                   	gs
 8049a27:	74 68                	je     8049a91 <array.2924+0x11>
 8049a29:	69 6e 67 20 49 20 6c 	imul   $0x6c204920,0x67(%esi),%ebp
 8049a30:	69 6b 65 20 74 6f 20 	imul   $0x206f7420,0x65(%ebx),%ebp
 8049a37:	63 61 6c             	arpl   %sp,0x6c(%ecx)
 8049a3a:	6c                   	insb   (%dx),%es:(%edi)
 8049a3b:	20 61 20             	and    %ah,0x20(%ecx)
 8049a3e:	44                   	inc    %esp
 8049a3f:	65                   	gs
 8049a40:	61                   	popa   
 8049a41:	74 68                	je     8049aab <array.2924+0x2b>
 8049a43:	20 53 74             	and    %dl,0x74(%ebx)
 8049a46:	61                   	popa   
 8049a47:	72 2e                	jb     8049a77 <_IO_stdin_used+0x1d3>
	...
 8049a5d:	00 00                	add    %al,(%eax)
 8049a5f:	00 52 8f             	add    %dl,-0x71(%edx)
 8049a62:	04 08                	add    $0x8,%al
 8049a64:	59                   	pop    %ecx
 8049a65:	8f 04 08             	popl   (%eax,%ecx,1)
 8049a68:	62 8f 04 08 69 8f    	bound  %ecx,-0x7096f7fc(%edi)
 8049a6e:	04 08                	add    $0x8,%al
 8049a70:	72 8f                	jb     8049a01 <_IO_stdin_used+0x15d>
 8049a72:	04 08                	add    $0x8,%al
 8049a74:	79 8f                	jns    8049a05 <_IO_stdin_used+0x161>
 8049a76:	04 08                	add    $0x8,%al
 8049a78:	42                   	inc    %edx
 8049a79:	8f 04 08             	popl   (%eax,%ecx,1)
 8049a7c:	49                   	dec    %ecx
 8049a7d:	8f 04 08             	popl   (%eax,%ecx,1)

08049a80 <array.2924>:
 8049a80:	02 00                	add    (%eax),%al
 8049a82:	00 00                	add    %al,(%eax)
 8049a84:	0a 00                	or     (%eax),%al
 8049a86:	00 00                	add    %al,(%eax)
 8049a88:	06                   	push   %es
 8049a89:	00 00                	add    %al,(%eax)
 8049a8b:	00 01                	add    %al,(%ecx)
 8049a8d:	00 00                	add    %al,(%eax)
 8049a8f:	00 0c 00             	add    %cl,(%eax,%eax,1)
 8049a92:	00 00                	add    %al,(%eax)
 8049a94:	10 00                	adc    %al,(%eax)
 8049a96:	00 00                	add    %al,(%eax)
 8049a98:	09 00                	or     %eax,(%eax)
 8049a9a:	00 00                	add    %al,(%eax)
 8049a9c:	03 00                	add    (%eax),%eax
 8049a9e:	00 00                	add    %al,(%eax)
 8049aa0:	04 00                	add    $0x0,%al
 8049aa2:	00 00                	add    %al,(%eax)
 8049aa4:	07                   	pop    %es
 8049aa5:	00 00                	add    %al,(%eax)
 8049aa7:	00 0e                	add    %cl,(%esi)
 8049aa9:	00 00                	add    %al,(%eax)
 8049aab:	00 05 00 00 00 0b    	add    %al,0xb000000
 8049ab1:	00 00                	add    %al,(%eax)
 8049ab3:	00 08                	add    %cl,(%eax)
 8049ab5:	00 00                	add    %al,(%eax)
 8049ab7:	00 0f                	add    %cl,(%edi)
 8049ab9:	00 00                	add    %al,(%eax)
 8049abb:	00 0d 00 00 00 45    	add    %cl,0x45000000
 8049ac1:	52                   	push   %edx
 8049ac2:	52                   	push   %edx
 8049ac3:	4f                   	dec    %edi
 8049ac4:	52                   	push   %edx
 8049ac5:	3a 20                	cmp    (%eax),%ah
 8049ac7:	64                   	fs
 8049ac8:	75 70                	jne    8049b3a <array.2924+0xba>
 8049aca:	28 30                	sub    %dh,(%eax)
 8049acc:	29 20                	sub    %esp,(%eax)
 8049ace:	65                   	gs
 8049acf:	72 72                	jb     8049b43 <array.2924+0xc3>
 8049ad1:	6f                   	outsl  %ds:(%esi),(%dx)
 8049ad2:	72 00                	jb     8049ad4 <array.2924+0x54>
 8049ad4:	45                   	inc    %ebp
 8049ad5:	52                   	push   %edx
 8049ad6:	52                   	push   %edx
 8049ad7:	4f                   	dec    %edi
 8049ad8:	52                   	push   %edx
 8049ad9:	3a 20                	cmp    (%eax),%ah
 8049adb:	63 6c 6f 73          	arpl   %bp,0x73(%edi,%ebp,2)
 8049adf:	65 20 65 72          	and    %ah,%gs:0x72(%ebp)
 8049ae3:	72 6f                	jb     8049b54 <array.2924+0xd4>
 8049ae5:	72 00                	jb     8049ae7 <array.2924+0x67>
 8049ae7:	45                   	inc    %ebp
 8049ae8:	52                   	push   %edx
 8049ae9:	52                   	push   %edx
 8049aea:	4f                   	dec    %edi
 8049aeb:	52                   	push   %edx
 8049aec:	3a 20                	cmp    (%eax),%ah
 8049aee:	74 6d                	je     8049b5d <array.2924+0xdd>
 8049af0:	70 66                	jo     8049b58 <array.2924+0xd8>
 8049af2:	69 6c 65 20 65 72 72 	imul   $0x6f727265,0x20(%ebp,%eiz,2),%ebp
 8049af9:	6f 
 8049afa:	72 00                	jb     8049afc <array.2924+0x7c>
 8049afc:	53                   	push   %ebx
 8049afd:	75 62                	jne    8049b61 <array.2924+0xe1>
 8049aff:	6a 65                	push   $0x65
 8049b01:	63 74 3a 20          	arpl   %si,0x20(%edx,%edi,1)
 8049b05:	42                   	inc    %edx
 8049b06:	6f                   	outsl  %ds:(%esi),(%dx)
 8049b07:	6d                   	insl   (%dx),%es:(%edi)
 8049b08:	62 20                	bound  %esp,(%eax)
 8049b0a:	6e                   	outsb  %ds:(%esi),(%dx)
 8049b0b:	6f                   	outsl  %ds:(%esi),(%dx)
 8049b0c:	74 69                	je     8049b77 <array.2924+0xf7>
 8049b0e:	66 69 63 61 74 69    	imul   $0x6974,0x61(%ebx),%sp
 8049b14:	6f                   	outsl  %ds:(%esi),(%dx)
 8049b15:	6e                   	outsb  %ds:(%esi),(%dx)
 8049b16:	0a 00                	or     (%eax),%al
 8049b18:	64                   	fs
 8049b19:	65                   	gs
 8049b1a:	66                   	data16
 8049b1b:	75 73                	jne    8049b90 <array.2924+0x110>
 8049b1d:	65 64 00 65 78       	add    %ah,%fs:%gs:0x78(%ebp)
 8049b22:	70 6c                	jo     8049b90 <array.2924+0x110>
 8049b24:	6f                   	outsl  %ds:(%esi),(%dx)
 8049b25:	64 65 64 00 62 6f    	add    %ah,%fs:%gs:0x6f(%edx)
 8049b2b:	6d                   	insl   (%dx),%es:(%edi)
 8049b2c:	62 2d 68 65 61 64    	bound  %ebp,0x64616568
 8049b32:	65                   	gs
 8049b33:	72 3a                	jb     8049b6f <array.2924+0xef>
 8049b35:	25 73 3a 25 64       	and    $0x64253a73,%eax
 8049b3a:	3a 25 73 3a 25 73    	cmp    0x73253a73,%ah
 8049b40:	3a 25 64 0a 00 62    	cmp    0x62000a64,%ah
 8049b46:	6f                   	outsl  %ds:(%esi),(%dx)
 8049b47:	6d                   	insl   (%dx),%es:(%edi)
 8049b48:	62 2d 73 74 72 69    	bound  %ebp,0x69727473
 8049b4e:	6e                   	outsb  %ds:(%esi),(%dx)
 8049b4f:	67 3a 25             	addr16 cmp (%di),%ah
 8049b52:	73 3a                	jae    8049b8e <array.2924+0x10e>
 8049b54:	25 64 3a 25 73       	and    $0x73253a64,%eax
 8049b59:	3a 25 64 3a 25 73    	cmp    0x73253a64,%ah
 8049b5f:	0a 00                	or     (%eax),%al
 8049b61:	6c                   	insb   (%dx),%es:(%edi)
 8049b62:	79 64                	jns    8049bc8 <array.2924+0x148>
 8049b64:	69 61 2d 64 65 73 6b 	imul   $0x6b736564,0x2d(%ecx),%esp
 8049b6b:	74 6f                	je     8049bdc <array.2924+0x15c>
 8049b6d:	70 00                	jo     8049b6f <array.2924+0xef>
 8049b6f:	62 6f 6d             	bound  %ebp,0x6d(%edi)
 8049b72:	62 00                	bound  %eax,(%eax)
 8049b74:	2f                   	das    
 8049b75:	75 73                	jne    8049bea <array.2924+0x16a>
 8049b77:	72 2f                	jb     8049ba8 <array.2924+0x128>
 8049b79:	73 62                	jae    8049bdd <array.2924+0x15d>
 8049b7b:	69 6e 2f 73 65 6e 64 	imul   $0x646e6573,0x2f(%esi),%ebp
 8049b82:	6d                   	insl   (%dx),%es:(%edi)
 8049b83:	61                   	popa   
 8049b84:	69 6c 20 2d 62 6d 00 	imul   $0x25006d62,0x2d(%eax,%eiz,1),%ebp
 8049b8b:	25 
 8049b8c:	73 20                	jae    8049bae <array.2924+0x12e>
 8049b8e:	25 73 40 25 73       	and    $0x73254073,%eax
 8049b93:	00 45 52             	add    %al,0x52(%ebp)
 8049b96:	52                   	push   %edx
 8049b97:	4f                   	dec    %edi
 8049b98:	52                   	push   %edx
 8049b99:	3a 20                	cmp    (%eax),%ah
 8049b9b:	6e                   	outsb  %ds:(%esi),(%dx)
 8049b9c:	6f                   	outsl  %ds:(%esi),(%dx)
 8049b9d:	74 69                	je     8049c08 <array.2924+0x188>
 8049b9f:	66 69 63 61 74 69    	imul   $0x6974,0x61(%ebx),%sp
 8049ba5:	6f                   	outsl  %ds:(%esi),(%dx)
 8049ba6:	6e                   	outsb  %ds:(%esi),(%dx)
 8049ba7:	20 65 72             	and    %ah,0x72(%ebp)
 8049baa:	72 6f                	jb     8049c1b <array.2924+0x19b>
 8049bac:	72 00                	jb     8049bae <array.2924+0x12e>
 8049bae:	45                   	inc    %ebp
 8049baf:	52                   	push   %edx
 8049bb0:	52                   	push   %edx
 8049bb1:	4f                   	dec    %edi
 8049bb2:	52                   	push   %edx
 8049bb3:	3a 20                	cmp    (%eax),%ah
 8049bb5:	66                   	data16
 8049bb6:	63 6c 6f 73          	arpl   %bp,0x73(%edi,%ebp,2)
 8049bba:	65 28 74 6d 70       	sub    %dh,%gs:0x70(%ebp,%ebp,2)
 8049bbf:	29 20                	sub    %esp,(%eax)
 8049bc1:	65                   	gs
 8049bc2:	72 72                	jb     8049c36 <array.2924+0x1b6>
 8049bc4:	6f                   	outsl  %ds:(%esi),(%dx)
 8049bc5:	72 00                	jb     8049bc7 <array.2924+0x147>
 8049bc7:	45                   	inc    %ebp
 8049bc8:	52                   	push   %edx
 8049bc9:	52                   	push   %edx
 8049bca:	4f                   	dec    %edi
 8049bcb:	52                   	push   %edx
 8049bcc:	3a 20                	cmp    (%eax),%ah
 8049bce:	64                   	fs
 8049bcf:	75 70                	jne    8049c41 <array.2924+0x1c1>
 8049bd1:	28 74 6d 70          	sub    %dh,0x70(%ebp,%ebp,2)
 8049bd5:	73 74                	jae    8049c4b <array.2924+0x1cb>
 8049bd7:	64 69 6e 29 20 65 72 	imul   $0x72726520,%fs:0x29(%esi),%ebp
 8049bde:	72 
 8049bdf:	6f                   	outsl  %ds:(%esi),(%dx)
 8049be0:	72 00                	jb     8049be2 <array.2924+0x162>
 8049be2:	45                   	inc    %ebp
 8049be3:	52                   	push   %edx
 8049be4:	52                   	push   %edx
 8049be5:	4f                   	dec    %edi
 8049be6:	52                   	push   %edx
 8049be7:	3a 20                	cmp    (%eax),%ah
 8049be9:	63 6c 6f 73          	arpl   %bp,0x73(%edi,%ebp,2)
 8049bed:	65 28 74 6d 70       	sub    %dh,%gs:0x70(%ebp,%ebp,2)
 8049bf2:	73 74                	jae    8049c68 <array.2924+0x1e8>
 8049bf4:	64 69 6e 29 00 25 64 	imul   $0x20642500,%fs:0x29(%esi),%ebp
 8049bfb:	20 
 8049bfc:	25 73 00 61 75       	and    $0x75610073,%eax
 8049c01:	73 74                	jae    8049c77 <array.2924+0x1f7>
 8049c03:	69 6e 70 6f 77 65 72 	imul   $0x7265776f,0x70(%esi),%ebp
 8049c0a:	73 00                	jae    8049c0c <array.2924+0x18c>
 8049c0c:	0a 42 4f             	or     0x4f(%edx),%al
 8049c0f:	4f                   	dec    %edi
 8049c10:	4d                   	dec    %ebp
 8049c11:	21 21                	and    %esp,(%ecx)
 8049c13:	21 00                	and    %eax,(%eax)
 8049c15:	54                   	push   %esp
 8049c16:	68 65 20 62 6f       	push   $0x6f622065
 8049c1b:	6d                   	insl   (%dx),%es:(%edi)
 8049c1c:	62 20                	bound  %esp,(%eax)
 8049c1e:	68 61 73 20 62       	push   $0x62207361
 8049c23:	6c                   	insb   (%dx),%es:(%edi)
 8049c24:	6f                   	outsl  %ds:(%esi),(%dx)
 8049c25:	77 6e                	ja     8049c95 <array.2924+0x215>
 8049c27:	20 75 70             	and    %dh,0x70(%ebp)
 8049c2a:	2e 00 25 64 20 25 64 	add    %ah,%cs:0x64252064
 8049c31:	20 25 64 20 25 64    	and    %ah,0x64252064
 8049c37:	20 25 64 20 25 64    	and    %ah,0x64252064
 8049c3d:	00 45 72             	add    %al,0x72(%ebp)
 8049c40:	72 6f                	jb     8049cb1 <array.2924+0x231>
 8049c42:	72 3a                	jb     8049c7e <array.2924+0x1fe>
 8049c44:	20 50 72             	and    %dl,0x72(%eax)
 8049c47:	65                   	gs
 8049c48:	6d                   	insl   (%dx),%es:(%edi)
 8049c49:	61                   	popa   
 8049c4a:	74 75                	je     8049cc1 <array.2924+0x241>
 8049c4c:	72 65                	jb     8049cb3 <array.2924+0x233>
 8049c4e:	20 45 4f             	and    %al,0x4f(%ebp)
 8049c51:	46                   	inc    %esi
 8049c52:	20 6f 6e             	and    %ch,0x6e(%edi)
 8049c55:	20 73 74             	and    %dh,0x74(%ebx)
 8049c58:	64 69 6e 00 47 52 41 	imul   $0x44415247,%fs:0x0(%esi),%ebp
 8049c5f:	44 
 8049c60:	45                   	inc    %ebp
 8049c61:	5f                   	pop    %edi
 8049c62:	42                   	inc    %edx
 8049c63:	4f                   	dec    %edi
 8049c64:	4d                   	dec    %ebp
 8049c65:	42                   	inc    %edx
 8049c66:	00 45 72             	add    %al,0x72(%ebp)
 8049c69:	72 6f                	jb     8049cda <array.2924+0x25a>
 8049c6b:	72 3a                	jb     8049ca7 <array.2924+0x227>
 8049c6d:	20 49 6e             	and    %cl,0x6e(%ecx)
 8049c70:	70 75                	jo     8049ce7 <array.2924+0x267>
 8049c72:	74 20                	je     8049c94 <array.2924+0x214>
 8049c74:	6c                   	insb   (%dx),%es:(%edi)
 8049c75:	69 6e 65 20 74 6f 6f 	imul   $0x6f6f7420,0x65(%esi),%ebp
 8049c7c:	20 6c 6f 6e          	and    %ch,0x6e(%edi,%ebp,2)
 8049c80:	67 00 49 6e          	addr16 add %cl,0x6e(%bx,%di)
 8049c84:	76 61                	jbe    8049ce7 <array.2924+0x267>
 8049c86:	6c                   	insb   (%dx),%es:(%edi)
 8049c87:	69 64 20 70 68 61 73 	imul   $0x65736168,0x70(%eax,%eiz,1),%esp
 8049c8e:	65 
 8049c8f:	25 73 0a 00 57       	and    $0x57000a73,%eax
 8049c94:	65                   	gs
 8049c95:	6c                   	insb   (%dx),%es:(%edi)
 8049c96:	6c                   	insb   (%dx),%es:(%edi)
 8049c97:	2e 2e 2e 00 4f 4b    	add    %cl,%cs:0x4b(%edi)
 8049c9d:	2e 20 3a             	and    %bh,%cs:(%edx)
 8049ca0:	2d 29 00 42 61       	sub    $0x61420029,%eax
 8049ca5:	64 20 68 6f          	and    %ch,%fs:0x6f(%eax)
 8049ca9:	73 74                	jae    8049d1f <array.2924+0x29f>
 8049cab:	20 28                	and    %ch,(%eax)
 8049cad:	31 29                	xor    %ebp,(%ecx)
 8049caf:	2e 00 42 61          	add    %al,%cs:0x61(%edx)
 8049cb3:	64 20 68 6f          	and    %ch,%fs:0x6f(%eax)
 8049cb7:	73 74                	jae    8049d2d <array.2924+0x2ad>
 8049cb9:	20 28                	and    %ch,(%eax)
 8049cbb:	32 29                	xor    (%ecx),%ch
 8049cbd:	2e 00 42 61          	add    %al,%cs:0x61(%edx)
 8049cc1:	64 20 68 6f          	and    %ch,%fs:0x6f(%eax)
 8049cc5:	73 74                	jae    8049d3b <array.2924+0x2bb>
 8049cc7:	20 28                	and    %ch,(%eax)
 8049cc9:	33 29                	xor    (%ecx),%ebp
 8049ccb:	2e 00 42 61          	add    %al,%cs:0x61(%edx)
 8049ccf:	64 20 68 6f          	and    %ch,%fs:0x6f(%eax)
 8049cd3:	73 74                	jae    8049d49 <array.2924+0x2c9>
 8049cd5:	20 28                	and    %ch,(%eax)
 8049cd7:	34 29                	xor    $0x29,%al
 8049cd9:	00 31                	add    %dh,(%ecx)
 8049cdb:	30 2e                	xor    %ch,(%esi)
 8049cdd:	31 33                	xor    %esi,(%ebx)
 8049cdf:	2e                   	cs
 8049ce0:	35 2e 32 00 42       	xor    $0x4200322e,%eax
 8049ce5:	61                   	popa   
 8049ce6:	64 20 68 6f          	and    %ch,%fs:0x6f(%eax)
 8049cea:	73 74                	jae    8049d60 <array.2924+0x2e0>
 8049cec:	20 28                	and    %ch,(%eax)
 8049cee:	35 29 2e 00 00       	xor    $0x2e29,%eax
 8049cf3:	00 43 75             	add    %al,0x75(%ebx)
 8049cf6:	72 73                	jb     8049d6b <array.2924+0x2eb>
 8049cf8:	65                   	gs
 8049cf9:	73 2c                	jae    8049d27 <array.2924+0x2a7>
 8049cfb:	20 79 6f             	and    %bh,0x6f(%ecx)
 8049cfe:	75 27                	jne    8049d27 <array.2924+0x2a7>
 8049d00:	76 65                	jbe    8049d67 <array.2924+0x2e7>
 8049d02:	20 66 6f             	and    %ah,0x6f(%esi)
 8049d05:	75 6e                	jne    8049d75 <array.2924+0x2f5>
 8049d07:	64 20 74 68 65       	and    %dh,%fs:0x65(%eax,%ebp,2)
 8049d0c:	20 73 65             	and    %dh,0x65(%ebx)
 8049d0f:	63 72 65             	arpl   %si,0x65(%edx)
 8049d12:	74 20                	je     8049d34 <array.2924+0x2b4>
 8049d14:	70 68                	jo     8049d7e <array.2924+0x2fe>
 8049d16:	61                   	popa   
 8049d17:	73 65                	jae    8049d7e <array.2924+0x2fe>
 8049d19:	21 00                	and    %eax,(%eax)
 8049d1b:	00 42 75             	add    %al,0x75(%edx)
 8049d1e:	74 20                	je     8049d40 <array.2924+0x2c0>
 8049d20:	66 69 6e 64 69 6e    	imul   $0x6e69,0x64(%esi),%bp
 8049d26:	67 20 69 74          	addr16 and %ch,0x74(%bx,%di)
 8049d2a:	20 61 6e             	and    %ah,0x6e(%ecx)
 8049d2d:	64 20 73 6f          	and    %dh,%fs:0x6f(%ebx)
 8049d31:	6c                   	insb   (%dx),%es:(%edi)
 8049d32:	76 69                	jbe    8049d9d <array.2924+0x31d>
 8049d34:	6e                   	outsb  %ds:(%esi),(%dx)
 8049d35:	67 20 69 74          	addr16 and %ch,0x74(%bx,%di)
 8049d39:	20 61 72             	and    %ah,0x72(%ecx)
 8049d3c:	65 20 71 75          	and    %dh,%gs:0x75(%ecx)
 8049d40:	69 74 65 20 64 69 66 	imul   $0x66666964,0x20(%ebp,%eiz,2),%esi
 8049d47:	66 
 8049d48:	65                   	gs
 8049d49:	72 65                	jb     8049db0 <array.2924+0x330>
 8049d4b:	6e                   	outsb  %ds:(%esi),(%dx)
 8049d4c:	74 2e                	je     8049d7c <array.2924+0x2fc>
 8049d4e:	2e 2e 00 00          	add    %al,%cs:(%eax)
 8049d52:	00 00                	add    %al,(%eax)
 8049d54:	43                   	inc    %ebx
 8049d55:	6f                   	outsl  %ds:(%esi),(%dx)
 8049d56:	6e                   	outsb  %ds:(%esi),(%dx)
 8049d57:	67 72 61             	addr16 jb 8049dbb <array.2924+0x33b>
 8049d5a:	74 75                	je     8049dd1 <array.2924+0x351>
 8049d5c:	6c                   	insb   (%dx),%es:(%edi)
 8049d5d:	61                   	popa   
 8049d5e:	74 69                	je     8049dc9 <array.2924+0x349>
 8049d60:	6f                   	outsl  %ds:(%esi),(%dx)
 8049d61:	6e                   	outsb  %ds:(%esi),(%dx)
 8049d62:	73 21                	jae    8049d85 <array.2924+0x305>
 8049d64:	20 59 6f             	and    %bl,0x6f(%ecx)
 8049d67:	75 27                	jne    8049d90 <array.2924+0x310>
 8049d69:	76 65                	jbe    8049dd0 <array.2924+0x350>
 8049d6b:	20 64 65 66          	and    %ah,0x66(%ebp,%eiz,2)
 8049d6f:	75 73                	jne    8049de4 <array.2924+0x364>
 8049d71:	65 64 20 74 68 65    	and    %dh,%fs:%gs:0x65(%eax,%ebp,2)
 8049d77:	20 62 6f             	and    %ah,0x6f(%edx)
 8049d7a:	6d                   	insl   (%dx),%es:(%edi)
 8049d7b:	62 21                	bound  %esp,(%ecx)
 8049d7d:	00 00                	add    %al,(%eax)
 8049d7f:	00 59 6f             	add    %bl,0x6f(%ecx)
 8049d82:	75 72                	jne    8049df6 <array.2924+0x376>
 8049d84:	20 69 6e             	and    %ch,0x6e(%ecx)
 8049d87:	73 74                	jae    8049dfd <array.2924+0x37d>
 8049d89:	72 75                	jb     8049e00 <array.2924+0x380>
 8049d8b:	63 74 6f 72          	arpl   %si,0x72(%edi,%ebp,2)
 8049d8f:	20 68 61             	and    %ch,0x61(%eax)
 8049d92:	73 20                	jae    8049db4 <array.2924+0x334>
 8049d94:	62 65 65             	bound  %esp,0x65(%ebp)
 8049d97:	6e                   	outsb  %ds:(%esi),(%dx)
 8049d98:	20 6e 6f             	and    %ch,0x6f(%esi)
 8049d9b:	74 69                	je     8049e06 <array.2924+0x386>
 8049d9d:	66 69 65 64 20 61    	imul   $0x6120,0x64(%ebp),%sp
 8049da3:	6e                   	outsb  %ds:(%esi),(%dx)
 8049da4:	64 20 77 69          	and    %dh,%fs:0x69(%edi)
 8049da8:	6c                   	insb   (%dx),%es:(%edi)
 8049da9:	6c                   	insb   (%dx),%es:(%edi)
 8049daa:	20 76 65             	and    %dh,0x65(%esi)
 8049dad:	72 69                	jb     8049e18 <array.2924+0x398>
 8049daf:	66                   	data16
 8049db0:	79 20                	jns    8049dd2 <array.2924+0x352>
 8049db2:	79 6f                	jns    8049e23 <__FRAME_END__+0x3>
 8049db4:	75 72                	jne    8049e28 <__FRAME_END__+0x8>
 8049db6:	20 73 6f             	and    %dh,0x6f(%ebx)
 8049db9:	6c                   	insb   (%dx),%es:(%edi)
 8049dba:	75 74                	jne    8049e30 <__FRAME_END__+0x10>
 8049dbc:	69 6f 6e 2e 00 00 00 	imul   $0x2e,0x6e(%edi),%ebp
 8049dc3:	00 59 6f             	add    %bl,0x6f(%ecx)
 8049dc6:	75 72                	jne    8049e3a <__FRAME_END__+0x1a>
 8049dc8:	20 69 6e             	and    %ch,0x6e(%ecx)
 8049dcb:	73 74                	jae    8049e41 <__FRAME_END__+0x21>
 8049dcd:	72 75                	jb     8049e44 <__FRAME_END__+0x24>
 8049dcf:	63 74 6f 72          	arpl   %si,0x72(%edi,%ebp,2)
 8049dd3:	20 68 61             	and    %ch,0x61(%eax)
 8049dd6:	73 20                	jae    8049df8 <array.2924+0x378>
 8049dd8:	62 65 65             	bound  %esp,0x65(%ebp)
 8049ddb:	6e                   	outsb  %ds:(%esi),(%dx)
 8049ddc:	20 6e 6f             	and    %ch,0x6f(%esi)
 8049ddf:	74 69                	je     8049e4a <__FRAME_END__+0x2a>
 8049de1:	66 69 65 64 2e 00    	imul   $0x2e,0x64(%ebp),%sp
 8049de7:	00 53 6f             	add    %dl,0x6f(%ebx)
 8049dea:	20 79 6f             	and    %bh,0x6f(%ecx)
 8049ded:	75 20                	jne    8049e0f <array.2924+0x38f>
 8049def:	74 68                	je     8049e59 <__FRAME_END__+0x39>
 8049df1:	69 6e 6b 20 79 6f 75 	imul   $0x756f7920,0x6b(%esi),%ebp
 8049df8:	20 63 61             	and    %ah,0x61(%ebx)
 8049dfb:	6e                   	outsb  %ds:(%esi),(%dx)
 8049dfc:	20 73 74             	and    %dh,0x74(%ebx)
 8049dff:	6f                   	outsl  %ds:(%esi),(%dx)
 8049e00:	70 20                	jo     8049e22 <__FRAME_END__+0x2>
 8049e02:	74 68                	je     8049e6c <__FRAME_END__+0x4c>
 8049e04:	65 20 62 6f          	and    %ah,%gs:0x6f(%edx)
 8049e08:	6d                   	insl   (%dx),%es:(%edi)
 8049e09:	62 20                	bound  %esp,(%eax)
 8049e0b:	77 69                	ja     8049e76 <__FRAME_END__+0x56>
 8049e0d:	74 68                	je     8049e77 <__FRAME_END__+0x57>
 8049e0f:	20 63 74             	and    %ah,0x74(%ebx)
 8049e12:	72 6c                	jb     8049e80 <__FRAME_END__+0x60>
 8049e14:	2d 63 2c 20 64       	sub    $0x64202c63,%eax
 8049e19:	6f                   	outsl  %ds:(%esi),(%dx)
 8049e1a:	20 79 6f             	and    %bh,0x6f(%ecx)
 8049e1d:	75 3f                	jne    8049e5e <__FRAME_END__+0x3e>
	...

Disassembly of section .eh_frame:

08049e20 <__FRAME_END__>:
 8049e20:	00 00                	add    %al,(%eax)
	...

Disassembly of section .ctors:

0804a000 <__CTOR_LIST__>:
 804a000:	ff                   	(bad)  
 804a001:	ff                   	(bad)  
 804a002:	ff                   	(bad)  
 804a003:	ff 00                	incl   (%eax)

0804a004 <__CTOR_END__>:
 804a004:	00 00                	add    %al,(%eax)
	...

Disassembly of section .dtors:

0804a008 <__DTOR_LIST__>:
 804a008:	ff                   	(bad)  
 804a009:	ff                   	(bad)  
 804a00a:	ff                   	(bad)  
 804a00b:	ff 00                	incl   (%eax)

0804a00c <__DTOR_END__>:
 804a00c:	00 00                	add    %al,(%eax)
	...

Disassembly of section .jcr:

0804a010 <__JCR_END__>:
 804a010:	00 00                	add    %al,(%eax)
	...

Disassembly of section .dynamic:

0804a014 <_DYNAMIC>:
 804a014:	01 00                	add    %eax,(%eax)
 804a016:	00 00                	add    %al,(%eax)
 804a018:	10 00                	adc    %al,(%eax)
 804a01a:	00 00                	add    %al,(%eax)
 804a01c:	0c 00                	or     $0x0,%al
 804a01e:	00 00                	add    %al,(%eax)
 804a020:	e4 87                	in     $0x87,%al
 804a022:	04 08                	add    $0x8,%al
 804a024:	0d 00 00 00 68       	or     $0x68000000,%eax
 804a029:	98                   	cwtl   
 804a02a:	04 08                	add    $0x8,%al
 804a02c:	04 00                	add    $0x0,%al
 804a02e:	00 00                	add    %al,(%eax)
 804a030:	48                   	dec    %eax
 804a031:	81 04 08 05 00 00 00 	addl   $0x5,(%eax,%ecx,1)
 804a038:	c8 84 04 08          	enter  $0x484,$0x8
 804a03c:	06                   	push   %es
 804a03d:	00 00                	add    %al,(%eax)
 804a03f:	00 78 82             	add    %bh,-0x7e(%eax)
 804a042:	04 08                	add    $0x8,%al
 804a044:	0a 00                	or     (%eax),%al
 804a046:	00 00                	add    %al,(%eax)
 804a048:	60                   	pusha  
 804a049:	01 00                	add    %eax,(%eax)
 804a04b:	00 0b                	add    %cl,(%ebx)
 804a04d:	00 00                	add    %al,(%eax)
 804a04f:	00 10                	add    %dl,(%eax)
 804a051:	00 00                	add    %al,(%eax)
 804a053:	00 15 00 00 00 00    	add    %dl,0x0
 804a059:	00 00                	add    %al,(%eax)
 804a05b:	00 03                	add    %al,(%ebx)
 804a05d:	00 00                	add    %al,(%eax)
 804a05f:	00 e0                	add    %ah,%al
 804a061:	a0 04 08 02 00       	mov    0x20804,%al
 804a066:	00 00                	add    %al,(%eax)
 804a068:	08 01                	or     %al,(%ecx)
 804a06a:	00 00                	add    %al,(%eax)
 804a06c:	14 00                	adc    $0x0,%al
 804a06e:	00 00                	add    %al,(%eax)
 804a070:	11 00                	adc    %eax,(%eax)
 804a072:	00 00                	add    %al,(%eax)
 804a074:	17                   	pop    %ss
 804a075:	00 00                	add    %al,(%eax)
 804a077:	00 dc                	add    %bl,%ah
 804a079:	86 04 08             	xchg   %al,(%eax,%ecx,1)
 804a07c:	11 00                	adc    %eax,(%eax)
 804a07e:	00 00                	add    %al,(%eax)
 804a080:	c4 86 04 08 12 00    	les    0x120804(%esi),%eax
 804a086:	00 00                	add    %al,(%eax)
 804a088:	18 00                	sbb    %al,(%eax)
 804a08a:	00 00                	add    %al,(%eax)
 804a08c:	13 00                	adc    (%eax),%eax
 804a08e:	00 00                	add    %al,(%eax)
 804a090:	08 00                	or     %al,(%eax)
 804a092:	00 00                	add    %al,(%eax)
 804a094:	fe                   	(bad)  
 804a095:	ff                   	(bad)  
 804a096:	ff 6f 74             	ljmp   *0x74(%edi)
 804a099:	86 04 08             	xchg   %al,(%eax,%ecx,1)
 804a09c:	ff                   	(bad)  
 804a09d:	ff                   	(bad)  
 804a09e:	ff 6f 01             	ljmp   *0x1(%edi)
 804a0a1:	00 00                	add    %al,(%eax)
 804a0a3:	00 f0                	add    %dh,%al
 804a0a5:	ff                   	(bad)  
 804a0a6:	ff 6f 28             	ljmp   *0x28(%edi)
 804a0a9:	86 04 08             	xchg   %al,(%eax,%ecx,1)
	...

Disassembly of section .got:

0804a0dc <.got>:
 804a0dc:	00 00                	add    %al,(%eax)
	...

Disassembly of section .got.plt:

0804a0e0 <_GLOBAL_OFFSET_TABLE_>:
 804a0e0:	14 a0                	adc    $0xa0,%al
 804a0e2:	04 08                	add    $0x8,%al
	...
 804a0ec:	12 88 04 08 22 88    	adc    -0x77ddf7fc(%eax),%cl
 804a0f2:	04 08                	add    $0x8,%al
 804a0f4:	32 88 04 08 42 88    	xor    -0x77bdf7fc(%eax),%cl
 804a0fa:	04 08                	add    $0x8,%al
 804a0fc:	52                   	push   %edx
 804a0fd:	88 04 08             	mov    %al,(%eax,%ecx,1)
 804a100:	62 88 04 08 72 88    	bound  %ecx,-0x778df7fc(%eax)
 804a106:	04 08                	add    $0x8,%al
 804a108:	82                   	(bad)  
 804a109:	88 04 08             	mov    %al,(%eax,%ecx,1)
 804a10c:	92                   	xchg   %eax,%edx
 804a10d:	88 04 08             	mov    %al,(%eax,%ecx,1)
 804a110:	a2 88 04 08 b2       	mov    %al,0xb2080488
 804a115:	88 04 08             	mov    %al,(%eax,%ecx,1)
 804a118:	c2 88 04             	ret    $0x488
 804a11b:	08 d2                	or     %dl,%dl
 804a11d:	88 04 08             	mov    %al,(%eax,%ecx,1)
 804a120:	e2 88                	loop   804a0aa <_DYNAMIC+0x96>
 804a122:	04 08                	add    $0x8,%al
 804a124:	f2 88 04 08          	repnz mov %al,(%eax,%ecx,1)
 804a128:	02 89 04 08 12 89    	add    -0x76edf7fc(%ecx),%cl
 804a12e:	04 08                	add    $0x8,%al
 804a130:	22 89 04 08 32 89    	and    -0x76cdf7fc(%ecx),%cl
 804a136:	04 08                	add    $0x8,%al
 804a138:	42                   	inc    %edx
 804a139:	89 04 08             	mov    %eax,(%eax,%ecx,1)
 804a13c:	52                   	push   %edx
 804a13d:	89 04 08             	mov    %eax,(%eax,%ecx,1)
 804a140:	62 89 04 08 72 89    	bound  %ecx,-0x768df7fc(%ecx)
 804a146:	04 08                	add    $0x8,%al
 804a148:	82                   	(bad)  
 804a149:	89 04 08             	mov    %eax,(%eax,%ecx,1)
 804a14c:	92                   	xchg   %eax,%edx
 804a14d:	89 04 08             	mov    %eax,(%eax,%ecx,1)
 804a150:	a2 89 04 08 b2       	mov    %al,0xb2080489
 804a155:	89 04 08             	mov    %eax,(%eax,%ecx,1)
 804a158:	c2 89 04             	ret    $0x489
 804a15b:	08 d2                	or     %dl,%dl
 804a15d:	89 04 08             	mov    %eax,(%eax,%ecx,1)
 804a160:	e2 89                	loop   804a0eb <_GLOBAL_OFFSET_TABLE_+0xb>
 804a162:	04 08                	add    $0x8,%al
 804a164:	f2 89 04 08          	repnz mov %eax,(%eax,%ecx,1)
 804a168:	02 8a 04 08 12 8a    	add    -0x75edf7fc(%edx),%cl
 804a16e:	04 08                	add    $0x8,%al

Disassembly of section .data:

0804a180 <__data_start>:
 804a180:	00 00                	add    %al,(%eax)
	...

0804a184 <__dso_handle>:
 804a184:	00 00                	add    %al,(%eax)
	...

0804a188 <p.5759>:
 804a188:	0c a0                	or     $0xa0,%al
 804a18a:	04 08                	add    $0x8,%al
	...

0804a1a0 <bomb_id>:
 804a1a0:	05 00 00 00 00       	add    $0x0,%eax
	...

0804a1c0 <lab_id>:
 804a1c0:	63 73 61             	arpl   %si,0x61(%ebx)
 804a1c3:	70 70                	jo     804a235 <lab_id+0x75>
 804a1c5:	32 30                	xor    (%eax),%dh
 804a1c7:	30 37                	xor    %dh,(%edi)
	...

0804a5c0 <node6>:
 804a5c0:	58                   	pop    %eax
 804a5c1:	01 00                	add    %eax,(%eax)
 804a5c3:	00 06                	add    %al,(%esi)
 804a5c5:	00 00                	add    %al,(%eax)
 804a5c7:	00 00                	add    %al,(%eax)
 804a5c9:	00 00                	add    %al,(%eax)
	...

0804a5cc <node5>:
 804a5cc:	76 02                	jbe    804a5d0 <node5+0x4>
 804a5ce:	00 00                	add    %al,(%eax)
 804a5d0:	05 00 00 00 c0       	add    $0xc0000000,%eax
 804a5d5:	a5                   	movsl  %ds:(%esi),%es:(%edi)
 804a5d6:	04 08                	add    $0x8,%al

0804a5d8 <node4>:
 804a5d8:	1f                   	pop    %ds
 804a5d9:	02 00                	add    (%eax),%al
 804a5db:	00 04 00             	add    %al,(%eax,%eax,1)
 804a5de:	00 00                	add    %al,(%eax)
 804a5e0:	cc                   	int3   
 804a5e1:	a5                   	movsl  %ds:(%esi),%es:(%edi)
 804a5e2:	04 08                	add    $0x8,%al

0804a5e4 <node3>:
 804a5e4:	06                   	push   %es
 804a5e5:	01 00                	add    %eax,(%eax)
 804a5e7:	00 03                	add    %al,(%ebx)
 804a5e9:	00 00                	add    %al,(%eax)
 804a5eb:	00 d8                	add    %bl,%al
 804a5ed:	a5                   	movsl  %ds:(%esi),%es:(%edi)
 804a5ee:	04 08                	add    $0x8,%al

0804a5f0 <node2>:
 804a5f0:	c8 03 00 00          	enter  $0x3,$0x0
 804a5f4:	02 00                	add    (%eax),%al
 804a5f6:	00 00                	add    %al,(%eax)
 804a5f8:	e4 a5                	in     $0xa5,%al
 804a5fa:	04 08                	add    $0x8,%al

0804a5fc <node1>:
 804a5fc:	ce                   	into   
 804a5fd:	00 00                	add    %al,(%eax)
 804a5ff:	00 01                	add    %al,(%ecx)
 804a601:	00 00                	add    %al,(%eax)
 804a603:	00 f0                	add    %dh,%al
 804a605:	a5                   	movsl  %ds:(%esi),%es:(%edi)
 804a606:	04 08                	add    $0x8,%al

0804a608 <n48>:
 804a608:	e9 03 00 00 00       	jmp    804a610 <n48+0x8>
 804a60d:	00 00                	add    %al,(%eax)
 804a60f:	00 00                	add    %al,(%eax)
 804a611:	00 00                	add    %al,(%eax)
	...

0804a614 <n46>:
 804a614:	2f                   	das    
	...

0804a620 <n43>:
 804a620:	14 00                	adc    $0x0,%al
	...

0804a62c <n42>:
 804a62c:	07                   	pop    %es
	...

0804a638 <n44>:
 804a638:	23 00                	and    (%eax),%eax
	...

0804a644 <n47>:
 804a644:	63 00                	arpl   %ax,(%eax)
	...

0804a650 <n41>:
 804a650:	01 00                	add    %eax,(%eax)
	...

0804a65c <n45>:
 804a65c:	28 00                	sub    %al,(%eax)
	...

0804a668 <n34>:
 804a668:	6b 00 00             	imul   $0x0,(%eax),%eax
 804a66b:	00 44 a6 04          	add    %al,0x4(%esi,%eiz,4)
 804a66f:	08 08                	or     %cl,(%eax)
 804a671:	a6                   	cmpsb  %es:(%edi),%ds:(%esi)
 804a672:	04 08                	add    $0x8,%al

0804a674 <n31>:
 804a674:	06                   	push   %es
 804a675:	00 00                	add    %al,(%eax)
 804a677:	00 50 a6             	add    %dl,-0x5a(%eax)
 804a67a:	04 08                	add    $0x8,%al
 804a67c:	2c a6                	sub    $0xa6,%al
 804a67e:	04 08                	add    $0x8,%al

0804a680 <n33>:
 804a680:	2d 00 00 00 5c       	sub    $0x5c000000,%eax
 804a685:	a6                   	cmpsb  %es:(%edi),%ds:(%esi)
 804a686:	04 08                	add    $0x8,%al
 804a688:	14 a6                	adc    $0xa6,%al
 804a68a:	04 08                	add    $0x8,%al

0804a68c <n32>:
 804a68c:	16                   	push   %ss
 804a68d:	00 00                	add    %al,(%eax)
 804a68f:	00 20                	add    %ah,(%eax)
 804a691:	a6                   	cmpsb  %es:(%edi),%ds:(%esi)
 804a692:	04 08                	add    $0x8,%al
 804a694:	38 a6 04 08 32 00    	cmp    %ah,0x320804(%esi)

0804a698 <n22>:
 804a698:	32 00                	xor    (%eax),%al
 804a69a:	00 00                	add    %al,(%eax)
 804a69c:	80 a6 04 08 68 a6 04 	andb   $0x4,-0x5997f7fc(%esi)
 804a6a3:	08 08                	or     %cl,(%eax)

0804a6a4 <n21>:
 804a6a4:	08 00                	or     %al,(%eax)
 804a6a6:	00 00                	add    %al,(%eax)
 804a6a8:	74 a6                	je     804a650 <n41>
 804a6aa:	04 08                	add    $0x8,%al
 804a6ac:	8c a6 04 08 24 00    	mov    %fs,0x240804(%esi)

0804a6b0 <n1>:
 804a6b0:	24 00                	and    $0x0,%al
 804a6b2:	00 00                	add    %al,(%eax)
 804a6b4:	a4                   	movsb  %ds:(%esi),%es:(%edi)
 804a6b5:	a6                   	cmpsb  %es:(%edi),%ds:(%esi)
 804a6b6:	04 08                	add    $0x8,%al
 804a6b8:	98                   	cwtl   
 804a6b9:	a6                   	cmpsb  %es:(%edi),%ds:(%esi)
 804a6ba:	04 08                	add    $0x8,%al
 804a6bc:	00 00                	add    %al,(%eax)
	...

0804a6c0 <host_table>:
 804a6c0:	61                   	popa   
 804a6c1:	9b                   	fwait
 804a6c2:	04 08                	add    $0x8,%al
	...

Disassembly of section .bss:

0804a800 <stdout@@GLIBC_2.0>:
 804a800:	00 00                	add    %al,(%eax)
	...

0804a804 <stdin@@GLIBC_2.0>:
 804a804:	00 00                	add    %al,(%eax)
	...

0804a808 <completed.5761>:
 804a808:	00 00                	add    %al,(%eax)
	...

0804a80c <num_input_strings>:
 804a80c:	00 00                	add    %al,(%eax)
	...

0804a810 <infile>:
	...

0804a820 <input_strings>:
	...

0804ae60 <scratch>:
	...

Disassembly of section .comment:

00000000 <.comment>:
   0:	00 47 43             	add    %al,0x43(%edi)
   3:	43                   	inc    %ebx
   4:	3a 20                	cmp    (%eax),%ah
   6:	28 47 4e             	sub    %al,0x4e(%edi)
   9:	55                   	push   %ebp
   a:	29 20                	sub    %esp,(%eax)
   c:	34 2e                	xor    $0x2e,%al
   e:	31 2e                	xor    %ebp,(%esi)
  10:	32 20                	xor    (%eax),%ah
  12:	32 30                	xor    (%eax),%dh
  14:	30 36                	xor    %dh,(%esi)
  16:	30 39                	xor    %bh,(%ecx)
  18:	32 38                	xor    (%eax),%bh
  1a:	20 28                	and    %ch,(%eax)
  1c:	70 72                	jo     90 <_init-0x8048754>
  1e:	65                   	gs
  1f:	72 65                	jb     86 <_init-0x804875e>
  21:	6c                   	insb   (%dx),%es:(%edi)
  22:	65                   	gs
  23:	61                   	popa   
  24:	73 65                	jae    8b <_init-0x8048759>
  26:	29 20                	sub    %esp,(%eax)
  28:	28 55 62             	sub    %dl,0x62(%ebp)
  2b:	75 6e                	jne    9b <_init-0x8048749>
  2d:	74 75                	je     a4 <_init-0x8048740>
  2f:	20 34 2e             	and    %dh,(%esi,%ebp,1)
  32:	31 2e                	xor    %ebp,(%esi)
  34:	31 2d 31 33 75 62    	xor    %ebp,0x62753331
  3a:	75 6e                	jne    aa <_init-0x804873a>
  3c:	74 75                	je     b3 <_init-0x8048731>
  3e:	35 29 00 00 47       	xor    $0x47000029,%eax
  43:	43                   	inc    %ebx
  44:	43                   	inc    %ebx
  45:	3a 20                	cmp    (%eax),%ah
  47:	28 47 4e             	sub    %al,0x4e(%edi)
  4a:	55                   	push   %ebp
  4b:	29 20                	sub    %esp,(%eax)
  4d:	34 2e                	xor    $0x2e,%al
  4f:	31 2e                	xor    %ebp,(%esi)
  51:	32 20                	xor    (%eax),%ah
  53:	32 30                	xor    (%eax),%dh
  55:	30 36                	xor    %dh,(%esi)
  57:	30 39                	xor    %bh,(%ecx)
  59:	32 38                	xor    (%eax),%bh
  5b:	20 28                	and    %ch,(%eax)
  5d:	70 72                	jo     d1 <_init-0x8048713>
  5f:	65                   	gs
  60:	72 65                	jb     c7 <_init-0x804871d>
  62:	6c                   	insb   (%dx),%es:(%edi)
  63:	65                   	gs
  64:	61                   	popa   
  65:	73 65                	jae    cc <_init-0x8048718>
  67:	29 20                	sub    %esp,(%eax)
  69:	28 55 62             	sub    %dl,0x62(%ebp)
  6c:	75 6e                	jne    dc <_init-0x8048708>
  6e:	74 75                	je     e5 <_init-0x80486ff>
  70:	20 34 2e             	and    %dh,(%esi,%ebp,1)
  73:	31 2e                	xor    %ebp,(%esi)
  75:	31 2d 31 33 75 62    	xor    %ebp,0x62753331
  7b:	75 6e                	jne    eb <_init-0x80486f9>
  7d:	74 75                	je     f4 <_init-0x80486f0>
  7f:	35 29 00 00 47       	xor    $0x47000029,%eax
  84:	43                   	inc    %ebx
  85:	43                   	inc    %ebx
  86:	3a 20                	cmp    (%eax),%ah
  88:	28 47 4e             	sub    %al,0x4e(%edi)
  8b:	55                   	push   %ebp
  8c:	29 20                	sub    %esp,(%eax)
  8e:	34 2e                	xor    $0x2e,%al
  90:	31 2e                	xor    %ebp,(%esi)
  92:	32 20                	xor    (%eax),%ah
  94:	32 30                	xor    (%eax),%dh
  96:	30 36                	xor    %dh,(%esi)
  98:	30 39                	xor    %bh,(%ecx)
  9a:	32 38                	xor    (%eax),%bh
  9c:	20 28                	and    %ch,(%eax)
  9e:	70 72                	jo     112 <_init-0x80486d2>
  a0:	65                   	gs
  a1:	72 65                	jb     108 <_init-0x80486dc>
  a3:	6c                   	insb   (%dx),%es:(%edi)
  a4:	65                   	gs
  a5:	61                   	popa   
  a6:	73 65                	jae    10d <_init-0x80486d7>
  a8:	29 20                	sub    %esp,(%eax)
  aa:	28 55 62             	sub    %dl,0x62(%ebp)
  ad:	75 6e                	jne    11d <_init-0x80486c7>
  af:	74 75                	je     126 <_init-0x80486be>
  b1:	20 34 2e             	and    %dh,(%esi,%ebp,1)
  b4:	31 2e                	xor    %ebp,(%esi)
  b6:	31 2d 31 33 75 62    	xor    %ebp,0x62753331
  bc:	75 6e                	jne    12c <_init-0x80486b8>
  be:	74 75                	je     135 <_init-0x80486af>
  c0:	35 29 00 00 47       	xor    $0x47000029,%eax
  c5:	43                   	inc    %ebx
  c6:	43                   	inc    %ebx
  c7:	3a 20                	cmp    (%eax),%ah
  c9:	28 47 4e             	sub    %al,0x4e(%edi)
  cc:	55                   	push   %ebp
  cd:	29 20                	sub    %esp,(%eax)
  cf:	34 2e                	xor    $0x2e,%al
  d1:	31 2e                	xor    %ebp,(%esi)
  d3:	32 20                	xor    (%eax),%ah
  d5:	32 30                	xor    (%eax),%dh
  d7:	30 36                	xor    %dh,(%esi)
  d9:	30 39                	xor    %bh,(%ecx)
  db:	32 38                	xor    (%eax),%bh
  dd:	20 28                	and    %ch,(%eax)
  df:	70 72                	jo     153 <_init-0x8048691>
  e1:	65                   	gs
  e2:	72 65                	jb     149 <_init-0x804869b>
  e4:	6c                   	insb   (%dx),%es:(%edi)
  e5:	65                   	gs
  e6:	61                   	popa   
  e7:	73 65                	jae    14e <_init-0x8048696>
  e9:	29 20                	sub    %esp,(%eax)
  eb:	28 55 62             	sub    %dl,0x62(%ebp)
  ee:	75 6e                	jne    15e <_init-0x8048686>
  f0:	74 75                	je     167 <_init-0x804867d>
  f2:	20 34 2e             	and    %dh,(%esi,%ebp,1)
  f5:	31 2e                	xor    %ebp,(%esi)
  f7:	31 2d 31 33 75 62    	xor    %ebp,0x62753331
  fd:	75 6e                	jne    16d <_init-0x8048677>
  ff:	74 75                	je     176 <_init-0x804866e>
 101:	35 29 00 00 47       	xor    $0x47000029,%eax
 106:	43                   	inc    %ebx
 107:	43                   	inc    %ebx
 108:	3a 20                	cmp    (%eax),%ah
 10a:	28 47 4e             	sub    %al,0x4e(%edi)
 10d:	55                   	push   %ebp
 10e:	29 20                	sub    %esp,(%eax)
 110:	34 2e                	xor    $0x2e,%al
 112:	31 2e                	xor    %ebp,(%esi)
 114:	32 20                	xor    (%eax),%ah
 116:	32 30                	xor    (%eax),%dh
 118:	30 36                	xor    %dh,(%esi)
 11a:	30 39                	xor    %bh,(%ecx)
 11c:	32 38                	xor    (%eax),%bh
 11e:	20 28                	and    %ch,(%eax)
 120:	70 72                	jo     194 <_init-0x8048650>
 122:	65                   	gs
 123:	72 65                	jb     18a <_init-0x804865a>
 125:	6c                   	insb   (%dx),%es:(%edi)
 126:	65                   	gs
 127:	61                   	popa   
 128:	73 65                	jae    18f <_init-0x8048655>
 12a:	29 20                	sub    %esp,(%eax)
 12c:	28 55 62             	sub    %dl,0x62(%ebp)
 12f:	75 6e                	jne    19f <_init-0x8048645>
 131:	74 75                	je     1a8 <_init-0x804863c>
 133:	20 34 2e             	and    %dh,(%esi,%ebp,1)
 136:	31 2e                	xor    %ebp,(%esi)
 138:	31 2d 31 33 75 62    	xor    %ebp,0x62753331
 13e:	75 6e                	jne    1ae <_init-0x8048636>
 140:	74 75                	je     1b7 <_init-0x804862d>
 142:	35 29 00 00 47       	xor    $0x47000029,%eax
 147:	43                   	inc    %ebx
 148:	43                   	inc    %ebx
 149:	3a 20                	cmp    (%eax),%ah
 14b:	28 47 4e             	sub    %al,0x4e(%edi)
 14e:	55                   	push   %ebp
 14f:	29 20                	sub    %esp,(%eax)
 151:	34 2e                	xor    $0x2e,%al
 153:	31 2e                	xor    %ebp,(%esi)
 155:	32 20                	xor    (%eax),%ah
 157:	32 30                	xor    (%eax),%dh
 159:	30 36                	xor    %dh,(%esi)
 15b:	30 39                	xor    %bh,(%ecx)
 15d:	32 38                	xor    (%eax),%bh
 15f:	20 28                	and    %ch,(%eax)
 161:	70 72                	jo     1d5 <_init-0x804860f>
 163:	65                   	gs
 164:	72 65                	jb     1cb <_init-0x8048619>
 166:	6c                   	insb   (%dx),%es:(%edi)
 167:	65                   	gs
 168:	61                   	popa   
 169:	73 65                	jae    1d0 <_init-0x8048614>
 16b:	29 20                	sub    %esp,(%eax)
 16d:	28 55 62             	sub    %dl,0x62(%ebp)
 170:	75 6e                	jne    1e0 <_init-0x8048604>
 172:	74 75                	je     1e9 <_init-0x80485fb>
 174:	20 34 2e             	and    %dh,(%esi,%ebp,1)
 177:	31 2e                	xor    %ebp,(%esi)
 179:	31 2d 31 33 75 62    	xor    %ebp,0x62753331
 17f:	75 6e                	jne    1ef <_init-0x80485f5>
 181:	74 75                	je     1f8 <_init-0x80485ec>
 183:	35 29 00 00 47       	xor    $0x47000029,%eax
 188:	43                   	inc    %ebx
 189:	43                   	inc    %ebx
 18a:	3a 20                	cmp    (%eax),%ah
 18c:	28 47 4e             	sub    %al,0x4e(%edi)
 18f:	55                   	push   %ebp
 190:	29 20                	sub    %esp,(%eax)
 192:	34 2e                	xor    $0x2e,%al
 194:	31 2e                	xor    %ebp,(%esi)
 196:	32 20                	xor    (%eax),%ah
 198:	32 30                	xor    (%eax),%dh
 19a:	30 36                	xor    %dh,(%esi)
 19c:	30 39                	xor    %bh,(%ecx)
 19e:	32 38                	xor    (%eax),%bh
 1a0:	20 28                	and    %ch,(%eax)
 1a2:	70 72                	jo     216 <_init-0x80485ce>
 1a4:	65                   	gs
 1a5:	72 65                	jb     20c <_init-0x80485d8>
 1a7:	6c                   	insb   (%dx),%es:(%edi)
 1a8:	65                   	gs
 1a9:	61                   	popa   
 1aa:	73 65                	jae    211 <_init-0x80485d3>
 1ac:	29 20                	sub    %esp,(%eax)
 1ae:	28 55 62             	sub    %dl,0x62(%ebp)
 1b1:	75 6e                	jne    221 <_init-0x80485c3>
 1b3:	74 75                	je     22a <_init-0x80485ba>
 1b5:	20 34 2e             	and    %dh,(%esi,%ebp,1)
 1b8:	31 2e                	xor    %ebp,(%esi)
 1ba:	31 2d 31 33 75 62    	xor    %ebp,0x62753331
 1c0:	75 6e                	jne    230 <_init-0x80485b4>
 1c2:	74 75                	je     239 <_init-0x80485ab>
 1c4:	35 29 00 00 47       	xor    $0x47000029,%eax
 1c9:	43                   	inc    %ebx
 1ca:	43                   	inc    %ebx
 1cb:	3a 20                	cmp    (%eax),%ah
 1cd:	28 47 4e             	sub    %al,0x4e(%edi)
 1d0:	55                   	push   %ebp
 1d1:	29 20                	sub    %esp,(%eax)
 1d3:	34 2e                	xor    $0x2e,%al
 1d5:	31 2e                	xor    %ebp,(%esi)
 1d7:	32 20                	xor    (%eax),%ah
 1d9:	32 30                	xor    (%eax),%dh
 1db:	30 36                	xor    %dh,(%esi)
 1dd:	30 39                	xor    %bh,(%ecx)
 1df:	32 38                	xor    (%eax),%bh
 1e1:	20 28                	and    %ch,(%eax)
 1e3:	70 72                	jo     257 <_init-0x804858d>
 1e5:	65                   	gs
 1e6:	72 65                	jb     24d <_init-0x8048597>
 1e8:	6c                   	insb   (%dx),%es:(%edi)
 1e9:	65                   	gs
 1ea:	61                   	popa   
 1eb:	73 65                	jae    252 <_init-0x8048592>
 1ed:	29 20                	sub    %esp,(%eax)
 1ef:	28 55 62             	sub    %dl,0x62(%ebp)
 1f2:	75 6e                	jne    262 <_init-0x8048582>
 1f4:	74 75                	je     26b <_init-0x8048579>
 1f6:	20 34 2e             	and    %dh,(%esi,%ebp,1)
 1f9:	31 2e                	xor    %ebp,(%esi)
 1fb:	31 2d 31 33 75 62    	xor    %ebp,0x62753331
 201:	75 6e                	jne    271 <_init-0x8048573>
 203:	74 75                	je     27a <_init-0x804856a>
 205:	35 29 00 00 47       	xor    $0x47000029,%eax
 20a:	43                   	inc    %ebx
 20b:	43                   	inc    %ebx
 20c:	3a 20                	cmp    (%eax),%ah
 20e:	28 47 4e             	sub    %al,0x4e(%edi)
 211:	55                   	push   %ebp
 212:	29 20                	sub    %esp,(%eax)
 214:	34 2e                	xor    $0x2e,%al
 216:	31 2e                	xor    %ebp,(%esi)
 218:	32 20                	xor    (%eax),%ah
 21a:	32 30                	xor    (%eax),%dh
 21c:	30 36                	xor    %dh,(%esi)
 21e:	30 39                	xor    %bh,(%ecx)
 220:	32 38                	xor    (%eax),%bh
 222:	20 28                	and    %ch,(%eax)
 224:	70 72                	jo     298 <_init-0x804854c>
 226:	65                   	gs
 227:	72 65                	jb     28e <_init-0x8048556>
 229:	6c                   	insb   (%dx),%es:(%edi)
 22a:	65                   	gs
 22b:	61                   	popa   
 22c:	73 65                	jae    293 <_init-0x8048551>
 22e:	29 20                	sub    %esp,(%eax)
 230:	28 55 62             	sub    %dl,0x62(%ebp)
 233:	75 6e                	jne    2a3 <_init-0x8048541>
 235:	74 75                	je     2ac <_init-0x8048538>
 237:	20 34 2e             	and    %dh,(%esi,%ebp,1)
 23a:	31 2e                	xor    %ebp,(%esi)
 23c:	31 2d 31 33 75 62    	xor    %ebp,0x62753331
 242:	75 6e                	jne    2b2 <_init-0x8048532>
 244:	74 75                	je     2bb <_init-0x8048529>
 246:	35                   	.byte 0x35
 247:	29 00                	sub    %eax,(%eax)

Disassembly of section .debug_aranges:

00000000 <.debug_aranges>:
   0:	2c 00                	sub    $0x0,%al
   2:	00 00                	add    %al,(%eax)
   4:	02 00                	add    (%eax),%al
   6:	91                   	xchg   %eax,%ecx
   7:	00 00                	add    %al,(%eax)
   9:	00 04 00             	add    %al,(%eax,%eax,1)
   c:	00 00                	add    %al,(%eax)
   e:	00 00                	add    %al,(%eax)
  10:	44                   	inc    %esp
  11:	8a 04 08             	mov    (%eax,%ecx,1),%al
  14:	26 00 00             	add    %al,%es:(%eax)
  17:	00 e4                	add    %ah,%ah
  19:	87 04 08             	xchg   %eax,(%eax,%ecx,1)
  1c:	0b 00                	or     (%eax),%eax
  1e:	00 00                	add    %al,(%eax)
  20:	68 98 04 08 13       	push   $0x13080498
	...
  2d:	00 00                	add    %al,(%eax)
  2f:	00 1c 00             	add    %bl,(%eax,%eax,1)
  32:	00 00                	add    %al,(%eax)
  34:	02 00                	add    (%eax),%al
  36:	18 01                	sbb    %al,(%ecx)
  38:	00 00                	add    %al,(%eax)
  3a:	04 00                	add    $0x0,%al
  3c:	00 00                	add    %al,(%eax)
  3e:	00 00                	add    %al,(%eax)
  40:	c4 8a 04 08 60 01    	les    0x1600804(%edx),%ecx
	...
  4e:	00 00                	add    %al,(%eax)
  50:	24 00                	and    $0x0,%al
  52:	00 00                	add    %al,(%eax)
  54:	02 00                	add    (%eax),%al
  56:	84 04 00             	test   %al,(%eax,%eax,1)
  59:	00 04 00             	add    %al,(%eax,%eax,1)
  5c:	00 00                	add    %al,(%eax)
  5e:	00 00                	add    %al,(%eax)
  60:	f9                   	stc    
  61:	87 04 08             	xchg   %eax,(%eax,%ecx,1)
  64:	02 00                	add    (%eax),%al
  66:	00 00                	add    %al,(%eax)
  68:	80 98 04 08 04 00 00 	sbbb   $0x0,0x40804(%eax)
	...

Disassembly of section .debug_pubnames:

00000000 <.debug_pubnames>:
   0:	21 00                	and    %eax,(%eax)
   2:	00 00                	add    %al,(%eax)
   4:	02 00                	add    (%eax),%al
   6:	00 00                	add    %al,(%eax)
   8:	00 00                	add    %al,(%eax)
   a:	91                   	xchg   %eax,%ecx
   b:	00 00                	add    %al,(%eax)
   d:	00 79 00             	add    %bh,0x0(%ecx)
  10:	00 00                	add    %al,(%eax)
  12:	5f                   	pop    %edi
  13:	49                   	dec    %ecx
  14:	4f                   	dec    %edi
  15:	5f                   	pop    %edi
  16:	73 74                	jae    8c <_init-0x8048758>
  18:	64 69 6e 5f 75 73 65 	imul   $0x64657375,%fs:0x5f(%esi),%ebp
  1f:	64 
  20:	00 00                	add    %al,(%eax)
  22:	00 00                	add    %al,(%eax)
  24:	00 22                	add    %ah,(%edx)
  26:	00 00                	add    %al,(%eax)
  28:	00 02                	add    %al,(%edx)
  2a:	00 18                	add    %bl,(%eax)
  2c:	01 00                	add    %eax,(%eax)
  2e:	00 6c 03 00          	add    %ch,0x0(%ebx,%eax,1)
  32:	00 e8                	add    %ch,%al
  34:	02 00                	add    (%eax),%al
  36:	00 6d 61             	add    %ch,0x61(%ebp)
  39:	69 6e 00 53 03 00 00 	imul   $0x353,0x0(%esi),%ebp
  40:	69 6e 66 69 6c 65 00 	imul   $0x656c69,0x66(%esi),%ebp
  47:	00 00                	add    %al,(%eax)
	...

Disassembly of section .debug_info:

00000000 <.debug_info>:
   0:	8d 00                	lea    (%eax),%eax
   2:	00 00                	add    %al,(%eax)
   4:	02 00                	add    (%eax),%al
   6:	00 00                	add    %al,(%eax)
   8:	00 00                	add    %al,(%eax)
   a:	04 01                	add    $0x1,%al
   c:	00 00                	add    %al,(%eax)
   e:	00 00                	add    %al,(%eax)
  10:	44                   	inc    %esp
  11:	8a 04 08             	mov    (%eax,%ecx,1),%al
  14:	44                   	inc    %esp
  15:	8a 04 08             	mov    (%eax,%ecx,1),%al
  18:	00 00                	add    %al,(%eax)
  1a:	00 00                	add    %al,(%eax)
  1c:	01 3b                	add    %edi,(%ebx)
  1e:	00 00                	add    %al,(%eax)
  20:	00 a1 00 00 00 02    	add    %ah,0x2000000(%ecx)
  26:	72 00                	jb     28 <_init-0x80487bc>
  28:	00 00                	add    %al,(%eax)
  2a:	04 07                	add    $0x7,%al
  2c:	02 5a 00             	add    0x0(%edx),%bl
  2f:	00 00                	add    %al,(%eax)
  31:	01 08                	add    %ecx,(%eax)
  33:	02 7f 00             	add    0x0(%edi),%bh
  36:	00 00                	add    %al,(%eax)
  38:	02 07                	add    (%edi),%al
  3a:	02 6d 00             	add    0x0(%ebp),%ch
  3d:	00 00                	add    %al,(%eax)
  3f:	04 07                	add    $0x7,%al
  41:	02 5c 00 00          	add    0x0(%eax,%eax,1),%bl
  45:	00 01                	add    %al,(%ecx)
  47:	06                   	push   %es
  48:	02 42 00             	add    0x0(%edx),%al
  4b:	00 00                	add    %al,(%eax)
  4d:	02 05 03 69 6e 74    	add    0x746e6903,%al
  53:	00 04 05 02 4c 00 00 	add    %al,0x4c02(,%eax,1)
  5a:	00 08                	add    %cl,(%eax)
  5c:	05 02 68 00 00       	add    $0x6802,%eax
  61:	00 08                	add    %cl,(%eax)
  63:	07                   	pop    %es
  64:	02 51 00             	add    0x0(%ecx),%dl
  67:	00 00                	add    %al,(%eax)
  69:	04 05                	add    $0x5,%al
  6b:	02 72 00             	add    0x0(%edx),%dh
  6e:	00 00                	add    %al,(%eax)
  70:	04 07                	add    $0x7,%al
  72:	02 63 00             	add    0x0(%ebx),%ah
  75:	00 00                	add    %al,(%eax)
  77:	01 06                	add    %eax,(%esi)
  79:	04 92                	add    $0x92,%al
  7b:	00 00                	add    %al,(%eax)
  7d:	00 01                	add    %al,(%ecx)
  7f:	19 8b 00 00 00 01    	sbb    %ecx,0x1000000(%ebx)
  85:	05 03 a4 98 04       	add    $0x498a403,%eax
  8a:	08 05 4f 00 00 00    	or     %al,0x4f
  90:	00 83 00 00 00 02    	add    %al,0x2000000(%ebx)
  96:	00 42 00             	add    %al,0x0(%edx)
  99:	00 00                	add    %al,(%eax)
  9b:	04 01                	add    $0x1,%al
  9d:	27                   	daa    
  9e:	00 00                	add    %al,(%eax)
  a0:	00 2f                	add    %ch,(%edi)
  a2:	62 75 69             	bound  %esi,0x69(%ebp)
  a5:	6c                   	insb   (%dx),%es:(%edi)
  a6:	64                   	fs
  a7:	2f                   	das    
  a8:	62 75 69             	bound  %esi,0x69(%ebp)
  ab:	6c                   	insb   (%dx),%es:(%edi)
  ac:	64                   	fs
  ad:	64                   	fs
  ae:	2f                   	das    
  af:	67 6c                	addr16 insb (%dx),%es:(%di)
  b1:	69 62 63 2d 32 2e 34 	imul   $0x342e322d,0x63(%edx),%esp
  b8:	2f                   	das    
  b9:	62 75 69             	bound  %esi,0x69(%ebp)
  bc:	6c                   	insb   (%dx),%es:(%edi)
  bd:	64                   	fs
  be:	2d 74 72 65 65       	sub    $0x65657274,%eax
  c3:	2f                   	das    
  c4:	69 33 38 36 2d 6c    	imul   $0x6c2d3638,(%ebx),%esi
  ca:	69 62 63 2f 63 73 75 	imul   $0x7573632f,0x63(%edx),%esp
  d1:	2f                   	das    
  d2:	63 72 74             	arpl   %si,0x74(%edx)
  d5:	69 2e 53 00 2f 62    	imul   $0x622f0053,(%esi),%ebp
  db:	75 69                	jne    146 <_init-0x804869e>
  dd:	6c                   	insb   (%dx),%es:(%edi)
  de:	64                   	fs
  df:	2f                   	das    
  e0:	62 75 69             	bound  %esi,0x69(%ebp)
  e3:	6c                   	insb   (%dx),%es:(%edi)
  e4:	64                   	fs
  e5:	64                   	fs
  e6:	2f                   	das    
  e7:	67 6c                	addr16 insb (%dx),%es:(%di)
  e9:	69 62 63 2d 32 2e 34 	imul   $0x342e322d,0x63(%edx),%esp
  f0:	2f                   	das    
  f1:	62 75 69             	bound  %esi,0x69(%ebp)
  f4:	6c                   	insb   (%dx),%es:(%edi)
  f5:	64                   	fs
  f6:	2d 74 72 65 65       	sub    $0x65657274,%eax
  fb:	2f                   	das    
  fc:	67 6c                	addr16 insb (%dx),%es:(%di)
  fe:	69 62 63 2d 32 2e 34 	imul   $0x342e322d,0x63(%edx),%esp
 105:	2f                   	das    
 106:	63 73 75             	arpl   %si,0x75(%ebx)
 109:	00 47 4e             	add    %al,0x4e(%edi)
 10c:	55                   	push   %ebp
 10d:	20 41 53             	and    %al,0x53(%ecx)
 110:	20 32                	and    %dh,(%edx)
 112:	2e 31 37             	xor    %esi,%cs:(%edi)
 115:	00 01                	add    %al,(%ecx)
 117:	80 68 03 00          	subb   $0x0,0x3(%eax)
 11b:	00 02                	add    %al,(%edx)
 11d:	00 52 00             	add    %dl,0x0(%edx)
 120:	00 00                	add    %al,(%eax)
 122:	04 01                	add    $0x1,%al
 124:	c3                   	ret    
 125:	00 00                	add    %al,(%eax)
 127:	00 24 8c             	add    %ah,(%esp,%ecx,4)
 12a:	04 08                	add    $0x8,%al
 12c:	c4 8a 04 08 00 00    	les    0x804(%edx),%ecx
 132:	00 00                	add    %al,(%eax)
 134:	01 01                	add    %eax,(%ecx)
 136:	02 00                	add    (%eax),%al
 138:	00 ab 01 00 00 02    	add    %ch,0x2000001(%ebx)
 13e:	ee                   	out    %al,(%dx)
 13f:	00 00                	add    %al,(%eax)
 141:	00 05 d6 30 00 00    	add    %al,0x30d6
 147:	00 03                	add    %al,(%ebx)
 149:	72 00                	jb     14b <_init-0x8048699>
 14b:	00 00                	add    %al,(%eax)
 14d:	04 07                	add    $0x7,%al
 14f:	03 5a 00             	add    0x0(%edx),%ebx
 152:	00 00                	add    %al,(%eax)
 154:	01 08                	add    %ecx,(%eax)
 156:	03 7f 00             	add    0x0(%edi),%edi
 159:	00 00                	add    %al,(%eax)
 15b:	02 07                	add    (%edi),%al
 15d:	03 6d 00             	add    0x0(%ebp),%ebp
 160:	00 00                	add    %al,(%eax)
 162:	04 07                	add    $0x7,%al
 164:	03 5c 00 00          	add    0x0(%eax,%eax,1),%ebx
 168:	00 01                	add    %al,(%ecx)
 16a:	06                   	push   %es
 16b:	03 42 00             	add    0x0(%edx),%eax
 16e:	00 00                	add    %al,(%eax)
 170:	02 05 04 69 6e 74    	add    0x746e6904,%al
 176:	00 04 05 03 4c 00 00 	add    %al,0x4c03(,%eax,1)
 17d:	00 08                	add    %cl,(%eax)
 17f:	05 03 68 00 00       	add    $0x6803,%eax
 184:	00 08                	add    %cl,(%eax)
 186:	07                   	pop    %es
 187:	02 47 01             	add    0x1(%edi),%al
 18a:	00 00                	add    %al,(%eax)
 18c:	04 3b                	add    $0x3b,%al
 18e:	61                   	popa   
 18f:	00 00                	add    %al,(%eax)
 191:	00 02                	add    %al,(%edx)
 193:	d2 00                	rolb   %cl,(%eax)
 195:	00 00                	add    %al,(%eax)
 197:	04 90                	add    $0x90,%al
 199:	85 00                	test   %eax,(%eax)
 19b:	00 00                	add    %al,(%eax)
 19d:	03 51 00             	add    0x0(%ecx),%edx
 1a0:	00 00                	add    %al,(%eax)
 1a2:	04 05                	add    $0x5,%al
 1a4:	02 14 02             	add    (%edx,%eax,1),%dl
 1a7:	00 00                	add    %al,(%eax)
 1a9:	04 91                	add    $0x91,%al
 1ab:	6f                   	outsl  %ds:(%esi),(%dx)
 1ac:	00 00                	add    %al,(%eax)
 1ae:	00 03                	add    %al,(%ebx)
 1b0:	72 00                	jb     1b2 <_init-0x8048632>
 1b2:	00 00                	add    %al,(%eax)
 1b4:	04 07                	add    $0x7,%al
 1b6:	05 04 06 04 a6       	add    $0xa6040604,%eax
 1bb:	00 00                	add    %al,(%eax)
 1bd:	00 03                	add    %al,(%ebx)
 1bf:	63 00                	arpl   %ax,(%eax)
 1c1:	00 00                	add    %al,(%eax)
 1c3:	01 06                	add    %eax,(%esi)
 1c5:	02 df                	add    %bh,%bl
 1c7:	01 00                	add    %eax,(%eax)
 1c9:	00 02                	add    %al,(%edx)
 1cb:	2e                   	cs
 1cc:	b8 00 00 00 07       	mov    $0x7000000,%eax
 1d1:	78 02                	js     1d5 <_init-0x804860f>
 1d3:	00 00                	add    %al,(%eax)
 1d5:	db 01                	fildl  (%ecx)
 1d7:	00 00                	add    %al,(%eax)
 1d9:	94                   	xchg   %eax,%esp
 1da:	02 2e                	add    (%esi),%ch
 1dc:	08 28                	or     %ch,(%eax)
 1de:	01 00                	add    %eax,(%eax)
 1e0:	00 03                	add    %al,(%ebx)
 1e2:	0c 01                	or     $0x1,%al
 1e4:	5a                   	pop    %edx
 1e5:	00 00                	add    %al,(%eax)
 1e7:	00 02                	add    %al,(%edx)
 1e9:	23 00                	and    (%eax),%eax
 1eb:	08 da                	or     %bl,%dl
 1ed:	00 00                	add    %al,(%eax)
 1ef:	00 03                	add    %al,(%ebx)
 1f1:	11 01                	adc    %eax,(%ecx)
 1f3:	a0 00 00 00 02       	mov    0x2000000,%al
 1f8:	23 04 08             	and    (%eax,%ecx,1),%eax
 1fb:	1b 01                	sbb    (%ecx),%eax
 1fd:	00 00                	add    %al,(%eax)
 1ff:	03 12                	add    (%edx),%edx
 201:	01 a0 00 00 00 02    	add    %esp,0x2000000(%eax)
 207:	23 08                	and    (%eax),%ecx
 209:	08 1e                	or     %bl,(%esi)
 20b:	02 00                	add    (%eax),%al
 20d:	00 03                	add    %al,(%ebx)
 20f:	13 01                	adc    (%ecx),%eax
 211:	a0 00 00 00 02       	mov    0x2000000,%al
 216:	23 0c 08             	and    (%eax,%ecx,1),%ecx
 219:	7d 02                	jge    21d <_init-0x80485c7>
 21b:	00 00                	add    %al,(%eax)
 21d:	03 14 01             	add    (%ecx,%eax,1),%edx
 220:	a0 00 00 00 02       	mov    0x2000000,%al
 225:	23 10                	and    (%eax),%edx
 227:	08 74 01 00          	or     %dh,0x0(%ecx,%eax,1)
 22b:	00 03                	add    %al,(%ebx)
 22d:	15 01 a0 00 00       	adc    $0xa001,%eax
 232:	00 02                	add    %al,(%edx)
 234:	23 14 08             	and    (%eax,%ecx,1),%edx
 237:	c2 01 00             	ret    $0x1
 23a:	00 03                	add    %al,(%ebx)
 23c:	16                   	push   %ss
 23d:	01 a0 00 00 00 02    	add    %esp,0x2000000(%eax)
 243:	23 18                	and    (%eax),%ebx
 245:	08 ff                	or     %bh,%bh
 247:	00 00                	add    %al,(%eax)
 249:	00 03                	add    %al,(%ebx)
 24b:	17                   	pop    %ss
 24c:	01 a0 00 00 00 02    	add    %esp,0x2000000(%eax)
 252:	23 1c 08             	and    (%eax,%ecx,1),%ebx
 255:	2f                   	das    
 256:	01 00                	add    %eax,(%eax)
 258:	00 03                	add    %al,(%ebx)
 25a:	18 01                	sbb    %al,(%ecx)
 25c:	a0 00 00 00 02       	mov    0x2000000,%al
 261:	23 20                	and    (%eax),%esp
 263:	08 9d 01 00 00 03    	or     %bl,0x3000001(%ebp)
 269:	1a 01                	sbb    (%ecx),%al
 26b:	a0 00 00 00 02       	mov    0x2000000,%al
 270:	23 24 08             	and    (%eax,%ecx,1),%esp
 273:	63 02                	arpl   %ax,(%edx)
 275:	00 00                	add    %al,(%eax)
 277:	03 1b                	add    (%ebx),%ebx
 279:	01 a0 00 00 00 02    	add    %esp,0x2000000(%eax)
 27f:	23 28                	and    (%eax),%ebp
 281:	08 2c 02             	or     %ch,(%edx,%eax,1)
 284:	00 00                	add    %al,(%eax)
 286:	03 1c 01             	add    (%ecx,%eax,1),%ebx
 289:	a0 00 00 00 02       	mov    0x2000000,%al
 28e:	23 2c 08             	and    (%eax,%ecx,1),%ebp
 291:	e9 01 00 00 03       	jmp    3000297 <_init-0x504854d>
 296:	1e                   	push   %ds
 297:	01 b6 02 00 00 02    	add    %esi,0x2000002(%esi)
 29d:	23 30                	and    (%eax),%esi
 29f:	08 e7                	or     %ah,%bh
 2a1:	00 00                	add    %al,(%eax)
 2a3:	00 03                	add    %al,(%ebx)
 2a5:	20 01                	and    %al,(%ecx)
 2a7:	bc 02 00 00 02       	mov    $0x2000002,%esp
 2ac:	23 34 08             	and    (%eax,%ecx,1),%esi
 2af:	13 01                	adc    (%ecx),%eax
 2b1:	00 00                	add    %al,(%eax)
 2b3:	03 22                	add    (%edx),%esp
 2b5:	01 5a 00             	add    %ebx,0x0(%edx)
 2b8:	00 00                	add    %al,(%eax)
 2ba:	02 23                	add    (%ebx),%ah
 2bc:	38 08                	cmp    %cl,(%eax)
 2be:	8f 01                	popl   (%ecx)
 2c0:	00 00                	add    %al,(%eax)
 2c2:	03 26                	add    (%esi),%esp
 2c4:	01 5a 00             	add    %ebx,0x0(%edx)
 2c7:	00 00                	add    %al,(%eax)
 2c9:	02 23                	add    (%ebx),%ah
 2cb:	3c 08                	cmp    $0x8,%al
 2cd:	50                   	push   %eax
 2ce:	01 00                	add    %eax,(%eax)
 2d0:	00 03                	add    %al,(%ebx)
 2d2:	28 01                	sub    %al,(%ecx)
 2d4:	7a 00                	jp     2d6 <_init-0x804850e>
 2d6:	00 00                	add    %al,(%eax)
 2d8:	02 23                	add    (%ebx),%ah
 2da:	40                   	inc    %eax
 2db:	08 3b                	or     %bh,(%ebx)
 2dd:	01 00                	add    %eax,(%eax)
 2df:	00 03                	add    %al,(%ebx)
 2e1:	2c 01                	sub    $0x1,%al
 2e3:	3e 00 00             	add    %al,%ds:(%eax)
 2e6:	00 02                	add    %al,(%edx)
 2e8:	23 44 08 f2          	and    -0xe(%eax,%ecx,1),%eax
 2ec:	01 00                	add    %eax,(%eax)
 2ee:	00 03                	add    %al,(%ebx)
 2f0:	2d 01 4c 00 00       	sub    $0x4c01,%eax
 2f5:	00 02                	add    %al,(%edx)
 2f7:	23 46 08             	and    0x8(%esi),%eax
 2fa:	f5                   	cmc    
 2fb:	00 00                	add    %al,(%eax)
 2fd:	00 03                	add    %al,(%ebx)
 2ff:	2e                   	cs
 300:	01 c2                	add    %eax,%edx
 302:	02 00                	add    (%eax),%al
 304:	00 02                	add    %al,(%edx)
 306:	23 47 08             	and    0x8(%edi),%eax
 309:	89 01                	mov    %eax,(%ecx)
 30b:	00 00                	add    %al,(%eax)
 30d:	03 32                	add    (%edx),%esi
 30f:	01 d2                	add    %edx,%edx
 311:	02 00                	add    (%eax),%al
 313:	00 02                	add    %al,(%edx)
 315:	23 48 08             	and    0x8(%eax),%ecx
 318:	54                   	push   %esp
 319:	01 00                	add    %eax,(%eax)
 31b:	00 03                	add    %al,(%ebx)
 31d:	3b 01                	cmp    (%ecx),%eax
 31f:	8c 00                	mov    %es,(%eax)
 321:	00 00                	add    %al,(%eax)
 323:	02 23                	add    (%ebx),%ah
 325:	4c                   	dec    %esp
 326:	08 39                	or     %bh,(%ecx)
 328:	02 00                	add    (%eax),%al
 32a:	00 03                	add    %al,(%ebx)
 32c:	44                   	inc    %esp
 32d:	01 9e 00 00 00 02    	add    %ebx,0x2000000(%esi)
 333:	23 54 08 40          	and    0x40(%eax,%ecx,1),%edx
 337:	02 00                	add    (%eax),%al
 339:	00 03                	add    %al,(%ebx)
 33b:	45                   	inc    %ebp
 33c:	01 9e 00 00 00 02    	add    %ebx,0x2000000(%esi)
 342:	23 58 08             	and    0x8(%eax),%ebx
 345:	47                   	inc    %edi
 346:	02 00                	add    (%eax),%al
 348:	00 03                	add    %al,(%ebx)
 34a:	46                   	inc    %esi
 34b:	01 9e 00 00 00 02    	add    %ebx,0x2000000(%esi)
 351:	23 5c 08 5c          	and    0x5c(%eax,%ecx,1),%ebx
 355:	01 00                	add    %eax,(%eax)
 357:	00 03                	add    %al,(%ebx)
 359:	47                   	inc    %edi
 35a:	01 9e 00 00 00 02    	add    %ebx,0x2000000(%esi)
 360:	23 60 08             	and    0x8(%eax),%esp
 363:	4e                   	dec    %esi
 364:	02 00                	add    (%eax),%al
 366:	00 03                	add    %al,(%ebx)
 368:	48                   	dec    %eax
 369:	01 25 00 00 00 02    	add    %esp,0x2000000
 36f:	23 64 08 97          	and    -0x69(%eax,%ecx,1),%esp
 373:	01 00                	add    %eax,(%eax)
 375:	00 03                	add    %al,(%ebx)
 377:	4a                   	dec    %edx
 378:	01 5a 00             	add    %ebx,0x0(%edx)
 37b:	00 00                	add    %al,(%eax)
 37d:	02 23                	add    (%ebx),%ah
 37f:	68 08 55 02 00       	push   $0x25508
 384:	00 03                	add    %al,(%ebx)
 386:	4c                   	dec    %esp
 387:	01 d8                	add    %ebx,%eax
 389:	02 00                	add    (%eax),%al
 38b:	00 02                	add    %al,(%edx)
 38d:	23 6c 00 09          	and    0x9(%eax,%eax,1),%ebp
 391:	d0 01                	rolb   (%ecx)
 393:	00 00                	add    %al,(%eax)
 395:	03 b0 07 b6 02 00    	add    0x2b607(%eax),%esi
 39b:	00 63 01             	add    %ah,0x1(%ebx)
 39e:	00 00                	add    %al,(%eax)
 3a0:	0c 03                	or     $0x3,%al
 3a2:	b6 0a                	mov    $0xa,%dh
 3a4:	0e                   	push   %cs
 3a5:	02 00                	add    (%eax),%al
 3a7:	00 03                	add    %al,(%ebx)
 3a9:	b7 b6                	mov    $0xb6,%bh
 3ab:	02 00                	add    (%eax),%al
 3ad:	00 02                	add    %al,(%edx)
 3af:	23 00                	and    (%eax),%eax
 3b1:	0a 8c 02 00 00 03 b8 	or     -0x47fd0000(%edx,%eax,1),%cl
 3b8:	bc 02 00 00 02       	mov    $0x2000002,%esp
 3bd:	23 04 0a             	and    (%edx,%ecx,1),%eax
 3c0:	e4 01                	in     $0x1,%al
 3c2:	00 00                	add    %al,(%eax)
 3c4:	03 bc 5a 00 00 00 02 	add    0x2000000(%edx,%ebx,2),%edi
 3cb:	23 08                	and    (%eax),%ecx
 3cd:	00 06                	add    %al,(%esi)
 3cf:	04 7f                	add    $0x7f,%al
 3d1:	02 00                	add    (%eax),%al
 3d3:	00 06                	add    %al,(%esi)
 3d5:	04 b8                	add    $0xb8,%al
 3d7:	00 00                	add    %al,(%eax)
 3d9:	00 0b                	add    %cl,(%ebx)
 3db:	d2 02                	rolb   %cl,(%edx)
 3dd:	00 00                	add    %al,(%eax)
 3df:	a6                   	cmpsb  %es:(%edi),%ds:(%esi)
 3e0:	00 00                	add    %al,(%eax)
 3e2:	00 0c 97             	add    %cl,(%edi,%edx,4)
 3e5:	00 00                	add    %al,(%eax)
 3e7:	00 00                	add    %al,(%eax)
 3e9:	00 06                	add    %al,(%esi)
 3eb:	04 78                	add    $0x78,%al
 3ed:	02 00                	add    (%eax),%al
 3ef:	00 0b                	add    %cl,(%ebx)
 3f1:	e8 02 00 00 a6       	call   a60003f8 <_end+0x9dfb5548>
 3f6:	00 00                	add    %al,(%eax)
 3f8:	00 0c 97             	add    %cl,(%edi,%edx,4)
 3fb:	00 00                	add    %al,(%eax)
 3fd:	00 27                	add    %ah,(%edi)
 3ff:	00 0d 33 03 00 00    	add    %cl,0x333
 405:	01 78 02             	add    %edi,0x2(%eax)
 408:	00 00                	add    %al,(%eax)
 40a:	01 24 01             	add    %esp,(%ecx,%eax,1)
 40d:	5a                   	pop    %edx
 40e:	00 00                	add    %al,(%eax)
 410:	00 c4                	add    %al,%ah
 412:	8a 04 08             	mov    (%eax,%ecx,1),%al
 415:	24 8c                	and    $0x8c,%al
 417:	04 08                	add    $0x8,%al
 419:	00 00                	add    %al,(%eax)
 41b:	00 00                	add    %al,(%eax)
 41d:	0e                   	push   %cs
 41e:	73 02                	jae    422 <_init-0x80483c2>
 420:	00 00                	add    %al,(%eax)
 422:	01 23                	add    %esp,(%ebx)
 424:	5a                   	pop    %edx
 425:	00 00                	add    %al,(%eax)
 427:	00 43 00             	add    %al,0x0(%ebx)
 42a:	00 00                	add    %al,(%eax)
 42c:	0e                   	push   %cs
 42d:	5e                   	pop    %esi
 42e:	02 00                	add    (%eax),%al
 430:	00 01                	add    %al,(%ecx)
 432:	23 33                	and    (%ebx),%esi
 434:	03 00                	add    (%eax),%eax
 436:	00 9c 00 00 00 0f 08 	add    %bl,0x80f0000(%eax,%eax,1)
 43d:	02 00                	add    (%eax),%al
 43f:	00 01                	add    %al,(%ecx)
 441:	25 a0 00 00 00       	and    $0xa0,%eax
 446:	c7 00 00 00 00 06    	movl   $0x6000000,(%eax)
 44c:	04 a0                	add    $0xa0,%al
 44e:	00 00                	add    %al,(%eax)
 450:	00 10                	add    %dl,(%eax)
 452:	6e                   	outsb  %ds:(%esi),(%dx)
 453:	01 00                	add    %eax,(%eax)
 455:	00 02                	add    %al,(%edx)
 457:	8e bc 02 00 00 01 01 	mov    0x1010000(%edx,%eax,1),%?
 45e:	10 0c 01             	adc    %cl,(%ecx,%eax,1)
 461:	00 00                	add    %al,(%eax)
 463:	02 8f bc 02 00 00    	add    0x2bc(%edi),%cl
 469:	01 01                	add    %eax,(%ecx)
 46b:	11 82 01 00 00 01    	adc    %eax,0x1000001(%edx)
 471:	21 65 03             	and    %esp,0x3(%ebp)
 474:	00 00                	add    %al,(%eax)
 476:	01 05 03 10 a8 04    	add    %eax,0x4a81003
 47c:	08 06                	or     %al,(%esi)
 47e:	04 ad                	add    $0xad,%al
 480:	00 00                	add    %al,(%eax)
 482:	00 00                	add    %al,(%eax)
 484:	83 00 00             	addl   $0x0,(%eax)
 487:	00 02                	add    %al,(%edx)
 489:	00 3c 01             	add    %bh,(%ecx,%eax,1)
 48c:	00 00                	add    %al,(%eax)
 48e:	04 01                	add    $0x1,%al
 490:	96                   	xchg   %eax,%esi
 491:	01 00                	add    %eax,(%eax)
 493:	00 2f                	add    %ch,(%edi)
 495:	62 75 69             	bound  %esi,0x69(%ebp)
 498:	6c                   	insb   (%dx),%es:(%edi)
 499:	64                   	fs
 49a:	2f                   	das    
 49b:	62 75 69             	bound  %esi,0x69(%ebp)
 49e:	6c                   	insb   (%dx),%es:(%edi)
 49f:	64                   	fs
 4a0:	64                   	fs
 4a1:	2f                   	das    
 4a2:	67 6c                	addr16 insb (%dx),%es:(%di)
 4a4:	69 62 63 2d 32 2e 34 	imul   $0x342e322d,0x63(%edx),%esp
 4ab:	2f                   	das    
 4ac:	62 75 69             	bound  %esi,0x69(%ebp)
 4af:	6c                   	insb   (%dx),%es:(%edi)
 4b0:	64                   	fs
 4b1:	2d 74 72 65 65       	sub    $0x65657274,%eax
 4b6:	2f                   	das    
 4b7:	69 33 38 36 2d 6c    	imul   $0x6c2d3638,(%ebx),%esi
 4bd:	69 62 63 2f 63 73 75 	imul   $0x7573632f,0x63(%edx),%esp
 4c4:	2f                   	das    
 4c5:	63 72 74             	arpl   %si,0x74(%edx)
 4c8:	6e                   	outsb  %ds:(%esi),(%dx)
 4c9:	2e                   	cs
 4ca:	53                   	push   %ebx
 4cb:	00 2f                	add    %ch,(%edi)
 4cd:	62 75 69             	bound  %esi,0x69(%ebp)
 4d0:	6c                   	insb   (%dx),%es:(%edi)
 4d1:	64                   	fs
 4d2:	2f                   	das    
 4d3:	62 75 69             	bound  %esi,0x69(%ebp)
 4d6:	6c                   	insb   (%dx),%es:(%edi)
 4d7:	64                   	fs
 4d8:	64                   	fs
 4d9:	2f                   	das    
 4da:	67 6c                	addr16 insb (%dx),%es:(%di)
 4dc:	69 62 63 2d 32 2e 34 	imul   $0x342e322d,0x63(%edx),%esp
 4e3:	2f                   	das    
 4e4:	62 75 69             	bound  %esi,0x69(%ebp)
 4e7:	6c                   	insb   (%dx),%es:(%edi)
 4e8:	64                   	fs
 4e9:	2d 74 72 65 65       	sub    $0x65657274,%eax
 4ee:	2f                   	das    
 4ef:	67 6c                	addr16 insb (%dx),%es:(%di)
 4f1:	69 62 63 2d 32 2e 34 	imul   $0x342e322d,0x63(%edx),%esp
 4f8:	2f                   	das    
 4f9:	63 73 75             	arpl   %si,0x75(%ebx)
 4fc:	00 47 4e             	add    %al,0x4e(%edi)
 4ff:	55                   	push   %ebp
 500:	20 41 53             	and    %al,0x53(%ecx)
 503:	20 32                	and    %dh,(%edx)
 505:	2e 31 37             	xor    %esi,%cs:(%edi)
 508:	00 01                	add    %al,(%ecx)
 50a:	80                   	.byte 0x80

Disassembly of section .debug_abbrev:

00000000 <.debug_abbrev>:
   0:	01 11                	add    %edx,(%ecx)
   2:	01 10                	add    %edx,(%eax)
   4:	06                   	push   %es
   5:	12 01                	adc    (%ecx),%al
   7:	11 01                	adc    %eax,(%ecx)
   9:	25 0e 13 0b 03       	and    $0x30b130e,%eax
   e:	0e                   	push   %cs
   f:	1b 0e                	sbb    (%esi),%ecx
  11:	00 00                	add    %al,(%eax)
  13:	02 24 00             	add    (%eax,%eax,1),%ah
  16:	03 0e                	add    (%esi),%ecx
  18:	0b 0b                	or     (%ebx),%ecx
  1a:	3e 0b 00             	or     %ds:(%eax),%eax
  1d:	00 03                	add    %al,(%ebx)
  1f:	24 00                	and    $0x0,%al
  21:	03 08                	add    (%eax),%ecx
  23:	0b 0b                	or     (%ebx),%ecx
  25:	3e 0b 00             	or     %ds:(%eax),%eax
  28:	00 04 34             	add    %al,(%esp,%esi,1)
  2b:	00 03                	add    %al,(%ebx)
  2d:	0e                   	push   %cs
  2e:	3a 0b                	cmp    (%ebx),%cl
  30:	3b 0b                	cmp    (%ebx),%ecx
  32:	49                   	dec    %ecx
  33:	13 3f                	adc    (%edi),%edi
  35:	0c 02                	or     $0x2,%al
  37:	0a 00                	or     (%eax),%al
  39:	00 05 26 00 49 13    	add    %al,0x13490026
  3f:	00 00                	add    %al,(%eax)
  41:	00 01                	add    %al,(%ecx)
  43:	11 00                	adc    %eax,(%eax)
  45:	10 06                	adc    %al,(%esi)
  47:	03 08                	add    (%eax),%ecx
  49:	1b 08                	sbb    (%eax),%ecx
  4b:	25 08 13 05 00       	and    $0x51308,%eax
  50:	00 00                	add    %al,(%eax)
  52:	01 11                	add    %edx,(%ecx)
  54:	01 10                	add    %edx,(%eax)
  56:	06                   	push   %es
  57:	12 01                	adc    (%ecx),%al
  59:	11 01                	adc    %eax,(%ecx)
  5b:	25 0e 13 0b 03       	and    $0x30b130e,%eax
  60:	0e                   	push   %cs
  61:	1b 0e                	sbb    (%esi),%ecx
  63:	00 00                	add    %al,(%eax)
  65:	02 16                	add    (%esi),%dl
  67:	00 03                	add    %al,(%ebx)
  69:	0e                   	push   %cs
  6a:	3a 0b                	cmp    (%ebx),%cl
  6c:	3b 0b                	cmp    (%ebx),%ecx
  6e:	49                   	dec    %ecx
  6f:	13 00                	adc    (%eax),%eax
  71:	00 03                	add    %al,(%ebx)
  73:	24 00                	and    $0x0,%al
  75:	03 0e                	add    (%esi),%ecx
  77:	0b 0b                	or     (%ebx),%ecx
  79:	3e 0b 00             	or     %ds:(%eax),%eax
  7c:	00 04 24             	add    %al,(%esp)
  7f:	00 03                	add    %al,(%ebx)
  81:	08 0b                	or     %cl,(%ebx)
  83:	0b 3e                	or     (%esi),%edi
  85:	0b 00                	or     (%eax),%eax
  87:	00 05 0f 00 0b 0b    	add    %al,0xb0b000f
  8d:	00 00                	add    %al,(%eax)
  8f:	06                   	push   %es
  90:	0f 00 0b             	str    (%ebx)
  93:	0b 49 13             	or     0x13(%ecx),%ecx
  96:	00 00                	add    %al,(%eax)
  98:	07                   	pop    %es
  99:	13 01                	adc    (%ecx),%eax
  9b:	01 13                	add    %edx,(%ebx)
  9d:	03 0e                	add    (%esi),%ecx
  9f:	0b 0b                	or     (%ebx),%ecx
  a1:	3a 0b                	cmp    (%ebx),%cl
  a3:	3b 0b                	cmp    (%ebx),%ecx
  a5:	00 00                	add    %al,(%eax)
  a7:	08 0d 00 03 0e 3a    	or     %cl,0x3a0e0300
  ad:	0b 3b                	or     (%ebx),%edi
  af:	05 49 13 38 0a       	add    $0xa381349,%eax
  b4:	00 00                	add    %al,(%eax)
  b6:	09 16                	or     %edx,(%esi)
  b8:	00 03                	add    %al,(%ebx)
  ba:	0e                   	push   %cs
  bb:	3a 0b                	cmp    (%ebx),%cl
  bd:	3b 0b                	cmp    (%ebx),%ecx
  bf:	00 00                	add    %al,(%eax)
  c1:	0a 0d 00 03 0e 3a    	or     0x3a0e0300,%cl
  c7:	0b 3b                	or     (%ebx),%edi
  c9:	0b 49 13             	or     0x13(%ecx),%ecx
  cc:	38 0a                	cmp    %cl,(%edx)
  ce:	00 00                	add    %al,(%eax)
  d0:	0b 01                	or     (%ecx),%eax
  d2:	01 01                	add    %eax,(%ecx)
  d4:	13 49 13             	adc    0x13(%ecx),%ecx
  d7:	00 00                	add    %al,(%eax)
  d9:	0c 21                	or     $0x21,%al
  db:	00 49 13             	add    %cl,0x13(%ecx)
  de:	2f                   	das    
  df:	0b 00                	or     (%eax),%eax
  e1:	00 0d 2e 01 01 13    	add    %cl,0x1301012e
  e7:	3f                   	aas    
  e8:	0c 03                	or     $0x3,%al
  ea:	0e                   	push   %cs
  eb:	3a 0b                	cmp    (%ebx),%cl
  ed:	3b 0b                	cmp    (%ebx),%ecx
  ef:	27                   	daa    
  f0:	0c 49                	or     $0x49,%al
  f2:	13 11                	adc    (%ecx),%edx
  f4:	01 12                	add    %edx,(%edx)
  f6:	01 40 06             	add    %eax,0x6(%eax)
  f9:	00 00                	add    %al,(%eax)
  fb:	0e                   	push   %cs
  fc:	05 00 03 0e 3a       	add    $0x3a0e0300,%eax
 101:	0b 3b                	or     (%ebx),%edi
 103:	0b 49 13             	or     0x13(%ecx),%ecx
 106:	02 06                	add    (%esi),%al
 108:	00 00                	add    %al,(%eax)
 10a:	0f 34                	sysenter 
 10c:	00 03                	add    %al,(%ebx)
 10e:	0e                   	push   %cs
 10f:	3a 0b                	cmp    (%ebx),%cl
 111:	3b 0b                	cmp    (%ebx),%ecx
 113:	49                   	dec    %ecx
 114:	13 02                	adc    (%edx),%eax
 116:	06                   	push   %es
 117:	00 00                	add    %al,(%eax)
 119:	10 34 00             	adc    %dh,(%eax,%eax,1)
 11c:	03 0e                	add    (%esi),%ecx
 11e:	3a 0b                	cmp    (%ebx),%cl
 120:	3b 0b                	cmp    (%ebx),%ecx
 122:	49                   	dec    %ecx
 123:	13 3f                	adc    (%edi),%edi
 125:	0c 3c                	or     $0x3c,%al
 127:	0c 00                	or     $0x0,%al
 129:	00 11                	add    %dl,(%ecx)
 12b:	34 00                	xor    $0x0,%al
 12d:	03 0e                	add    (%esi),%ecx
 12f:	3a 0b                	cmp    (%ebx),%cl
 131:	3b 0b                	cmp    (%ebx),%ecx
 133:	49                   	dec    %ecx
 134:	13 3f                	adc    (%edi),%edi
 136:	0c 02                	or     $0x2,%al
 138:	0a 00                	or     (%eax),%al
 13a:	00 00                	add    %al,(%eax)
 13c:	01 11                	add    %edx,(%ecx)
 13e:	00 10                	add    %dl,(%eax)
 140:	06                   	push   %es
 141:	03 08                	add    (%eax),%ecx
 143:	1b 08                	sbb    (%eax),%ecx
 145:	25 08 13 05 00       	and    $0x51308,%eax
	...

Disassembly of section .debug_line:

00000000 <.debug_line>:
   0:	23 00                	and    (%eax),%eax
   2:	00 00                	add    %al,(%eax)
   4:	02 00                	add    (%eax),%al
   6:	1d 00 00 00 01       	sbb    $0x1000000,%eax
   b:	01 fb                	add    %edi,%ebx
   d:	0e                   	push   %cs
   e:	0d 00 01 01 01       	or     $0x1010100,%eax
  13:	01 00                	add    %eax,(%eax)
  15:	00 00                	add    %al,(%eax)
  17:	01 00                	add    %eax,(%eax)
  19:	00 01                	add    %al,(%ecx)
  1b:	00 69 6e             	add    %ch,0x6e(%ecx)
  1e:	69 74 2e 63 00 00 00 	imul   $0x0,0x63(%esi,%ebp,1),%esi
  25:	00 
  26:	00 98 00 00 00 02    	add    %bl,0x2000000(%eax)
  2c:	00 4e 00             	add    %cl,0x0(%esi)
  2f:	00 00                	add    %al,(%eax)
  31:	01 01                	add    %eax,(%ecx)
  33:	fb                   	sti    
  34:	0e                   	push   %cs
  35:	0d 00 01 01 01       	or     $0x1010100,%eax
  3a:	01 00                	add    %eax,(%eax)
  3c:	00 00                	add    %al,(%eax)
  3e:	01 00                	add    %eax,(%eax)
  40:	00 01                	add    %al,(%ecx)
  42:	2f                   	das    
  43:	62 75 69             	bound  %esi,0x69(%ebp)
  46:	6c                   	insb   (%dx),%es:(%edi)
  47:	64                   	fs
  48:	2f                   	das    
  49:	62 75 69             	bound  %esi,0x69(%ebp)
  4c:	6c                   	insb   (%dx),%es:(%edi)
  4d:	64                   	fs
  4e:	64                   	fs
  4f:	2f                   	das    
  50:	67 6c                	addr16 insb (%dx),%es:(%di)
  52:	69 62 63 2d 32 2e 34 	imul   $0x342e322d,0x63(%edx),%esp
  59:	2f                   	das    
  5a:	62 75 69             	bound  %esi,0x69(%ebp)
  5d:	6c                   	insb   (%dx),%es:(%edi)
  5e:	64                   	fs
  5f:	2d 74 72 65 65       	sub    $0x65657274,%eax
  64:	2f                   	das    
  65:	69 33 38 36 2d 6c    	imul   $0x6c2d3638,(%ebx),%esi
  6b:	69 62 63 2f 63 73 75 	imul   $0x7573632f,0x63(%edx),%esp
  72:	00 00                	add    %al,(%eax)
  74:	63 72 74             	arpl   %si,0x74(%edx)
  77:	69 2e 53 00 01 00    	imul   $0x10053,(%esi),%ebp
  7d:	00 00                	add    %al,(%eax)
  7f:	00 05 02 44 8a 04    	add    %al,0x48a4402
  85:	08 03                	or     %al,(%ebx)
  87:	0b 01                	or     (%ecx),%eax
  89:	21 2f                	and    %ebp,(%edi)
  8b:	21 3d 5a 21 67 67    	and    %edi,0x6767215a
  91:	2f                   	das    
  92:	2f                   	das    
  93:	5a                   	pop    %edx
  94:	21 21                	and    %esp,(%ecx)
  96:	21 02                	and    %eax,(%edx)
  98:	01 00                	add    %eax,(%eax)
  9a:	01 01                	add    %eax,(%ecx)
  9c:	00 05 02 e4 87 04    	add    %al,0x487e402
  a2:	08 03                	or     %al,(%ebx)
  a4:	23 01                	and    (%ecx),%eax
  a6:	21 2f                	and    %ebp,(%edi)
  a8:	3d 02 05 00 01       	cmp    $0x1000502,%eax
  ad:	01 00                	add    %eax,(%eax)
  af:	05 02 68 98 04       	add    $0x4986802,%eax
  b4:	08 03                	or     %al,(%ebx)
  b6:	33 01                	xor    (%ecx),%eax
  b8:	21 2f                	and    %ebp,(%edi)
  ba:	21 3d 5a 21 02 06    	and    %edi,0x602215a
  c0:	00 01                	add    %al,(%ecx)
  c2:	01 cf                	add    %ecx,%edi
  c4:	00 00                	add    %al,(%eax)
  c6:	00 02                	add    %al,(%edx)
  c8:	00 93 00 00 00 01    	add    %dl,0x1000000(%ebx)
  ce:	01 fb                	add    %edi,%ebx
  d0:	0e                   	push   %cs
  d1:	0d 00 01 01 01       	or     $0x1010100,%eax
  d6:	01 00                	add    %eax,(%eax)
  d8:	00 00                	add    %al,(%eax)
  da:	01 00                	add    %eax,(%eax)
  dc:	00 01                	add    %al,(%ecx)
  de:	2f                   	das    
  df:	75 73                	jne    154 <_init-0x8048690>
  e1:	72 2f                	jb     112 <_init-0x80486d2>
  e3:	69 6e 63 6c 75 64 65 	imul   $0x6564756c,0x63(%esi),%ebp
  ea:	00 2f                	add    %ch,(%edi)
  ec:	75 73                	jne    161 <_init-0x8048683>
  ee:	72 2f                	jb     11f <_init-0x80486c5>
  f0:	69 6e 63 6c 75 64 65 	imul   $0x6564756c,0x63(%esi),%ebp
  f7:	2f                   	das    
  f8:	62 69 74             	bound  %ebp,0x74(%ecx)
  fb:	73 00                	jae    fd <_init-0x80486e7>
  fd:	2f                   	das    
  fe:	75 73                	jne    173 <_init-0x8048671>
 100:	72 2f                	jb     131 <_init-0x80486b3>
 102:	6c                   	insb   (%dx),%es:(%edi)
 103:	69 62 2f 67 63 63 2f 	imul   $0x2f636367,0x2f(%edx),%esp
 10a:	69 34 38 36 2d 6c 69 	imul   $0x696c2d36,(%eax,%edi,1),%esi
 111:	6e                   	outsb  %ds:(%esi),(%dx)
 112:	75 78                	jne    18c <_init-0x8048658>
 114:	2d 67 6e 75 2f       	sub    $0x2f756e67,%eax
 119:	34 2e                	xor    $0x2e,%al
 11b:	31 2e                	xor    %ebp,(%esi)
 11d:	32 2f                	xor    (%edi),%ch
 11f:	69 6e 63 6c 75 64 65 	imul   $0x6564756c,0x63(%esi),%ebp
 126:	00 00                	add    %al,(%eax)
 128:	62 6f 6d             	bound  %ebp,0x6d(%edi)
 12b:	62 2e                	bound  %ebp,(%esi)
 12d:	63 00                	arpl   %ax,(%eax)
 12f:	00 00                	add    %al,(%eax)
 131:	00 73 74             	add    %dh,0x74(%ebx)
 134:	64 69 6f 2e 68 00 01 	imul   $0x10068,%fs:0x2e(%edi),%ebp
 13b:	00 
 13c:	00 6c 69 62          	add    %ch,0x62(%ecx,%ebp,2)
 140:	69 6f 2e 68 00 01 00 	imul   $0x10068,0x2e(%edi),%ebp
 147:	00 74 79 70          	add    %dh,0x70(%ecx,%edi,2)
 14b:	65                   	gs
 14c:	73 2e                	jae    17c <_init-0x8048668>
 14e:	68 00 02 00 00       	push   $0x200
 153:	73 74                	jae    1c9 <_init-0x804861b>
 155:	64                   	fs
 156:	64                   	fs
 157:	65                   	gs
 158:	66                   	data16
 159:	2e                   	cs
 15a:	68 00 03 00 00       	push   $0x300
 15f:	00 00                	add    %al,(%eax)
 161:	05 02 c4 8a 04       	add    $0x48ac402,%eax
 166:	08 03                	or     %al,(%ebx)
 168:	23 01                	and    (%ecx),%eax
 16a:	08 6e 59             	or     %ch,0x59(%esi)
 16d:	c1 59 08 ad          	rcrl   $0xad,0x8(%ecx)
 171:	08 83 c0 08 21 be    	or     %al,-0x41def740(%ebx)
 177:	5a                   	pop    %edx
 178:	bb bd 59 83 5a       	mov    $0x5a8359bd,%ebx
 17d:	be 59 83 59 be       	mov    $0xbe598359,%esi
 182:	59                   	pop    %ecx
 183:	83 59 bd 59          	sbbl   $0x59,-0x43(%ecx)
 187:	83 59 bd 59          	sbbl   $0x59,-0x43(%ecx)
 18b:	83 59 be 59          	sbbl   $0x59,-0x42(%ecx)
 18f:	83 5e 02 0f          	sbbl   $0xf,0x2(%esi)
 193:	00 01                	add    %al,(%ecx)
 195:	01 76 00             	add    %esi,0x0(%esi)
 198:	00 00                	add    %al,(%eax)
 19a:	02 00                	add    (%eax),%al
 19c:	4e                   	dec    %esi
 19d:	00 00                	add    %al,(%eax)
 19f:	00 01                	add    %al,(%ecx)
 1a1:	01 fb                	add    %edi,%ebx
 1a3:	0e                   	push   %cs
 1a4:	0d 00 01 01 01       	or     $0x1010100,%eax
 1a9:	01 00                	add    %eax,(%eax)
 1ab:	00 00                	add    %al,(%eax)
 1ad:	01 00                	add    %eax,(%eax)
 1af:	00 01                	add    %al,(%ecx)
 1b1:	2f                   	das    
 1b2:	62 75 69             	bound  %esi,0x69(%ebp)
 1b5:	6c                   	insb   (%dx),%es:(%edi)
 1b6:	64                   	fs
 1b7:	2f                   	das    
 1b8:	62 75 69             	bound  %esi,0x69(%ebp)
 1bb:	6c                   	insb   (%dx),%es:(%edi)
 1bc:	64                   	fs
 1bd:	64                   	fs
 1be:	2f                   	das    
 1bf:	67 6c                	addr16 insb (%dx),%es:(%di)
 1c1:	69 62 63 2d 32 2e 34 	imul   $0x342e322d,0x63(%edx),%esp
 1c8:	2f                   	das    
 1c9:	62 75 69             	bound  %esi,0x69(%ebp)
 1cc:	6c                   	insb   (%dx),%es:(%edi)
 1cd:	64                   	fs
 1ce:	2d 74 72 65 65       	sub    $0x65657274,%eax
 1d3:	2f                   	das    
 1d4:	69 33 38 36 2d 6c    	imul   $0x6c2d3638,(%ebx),%esi
 1da:	69 62 63 2f 63 73 75 	imul   $0x7573632f,0x63(%edx),%esp
 1e1:	00 00                	add    %al,(%eax)
 1e3:	63 72 74             	arpl   %si,0x74(%edx)
 1e6:	6e                   	outsb  %ds:(%esi),(%dx)
 1e7:	2e                   	cs
 1e8:	53                   	push   %ebx
 1e9:	00 01                	add    %al,(%ecx)
 1eb:	00 00                	add    %al,(%eax)
 1ed:	00 00                	add    %al,(%eax)
 1ef:	05 02 f9 87 04       	add    $0x487f902,%eax
 1f4:	08 03                	or     %al,(%ebx)
 1f6:	09 01                	or     %eax,(%ecx)
 1f8:	21 02                	and    %eax,(%edx)
 1fa:	01 00                	add    %eax,(%eax)
 1fc:	01 01                	add    %eax,(%ecx)
 1fe:	00 05 02 80 98 04    	add    %al,0x4988002
 204:	08 03                	or     %al,(%ebx)
 206:	12 01                	adc    (%ecx),%al
 208:	21 21                	and    %esp,(%ecx)
 20a:	21 02                	and    %eax,(%edx)
 20c:	01 00                	add    %eax,(%eax)
 20e:	01 01                	add    %eax,(%ecx)

Disassembly of section .debug_frame:

00000000 <.debug_frame>:
   0:	10 00                	adc    %al,(%eax)
   2:	00 00                	add    %al,(%eax)
   4:	ff                   	(bad)  
   5:	ff                   	(bad)  
   6:	ff                   	(bad)  
   7:	ff 01                	incl   (%ecx)
   9:	00 01                	add    %al,(%ecx)
   b:	7c 08                	jl     15 <_init-0x80487cf>
   d:	0c 04                	or     $0x4,%al
   f:	04 88                	add    $0x88,%al
  11:	01 00                	add    %eax,(%eax)
  13:	00 24 00             	add    %ah,(%eax,%eax,1)
  16:	00 00                	add    %al,(%eax)
  18:	00 00                	add    %al,(%eax)
  1a:	00 00                	add    %al,(%eax)
  1c:	c4 8a 04 08 60 01    	les    0x1600804(%edx),%ecx
  22:	00 00                	add    %al,(%eax)
  24:	44                   	inc    %esp
  25:	0c 01                	or     $0x1,%al
  27:	00 09                	add    %cl,(%ecx)
  29:	04 01                	add    $0x1,%al
  2b:	46                   	inc    %esi
  2c:	0c 04                	or     $0x4,%al
  2e:	04 41                	add    $0x41,%al
  30:	0e                   	push   %cs
  31:	08 85 02 42 0d 05    	or     %al,0x50d4202(%ebp)
  37:	42                   	inc    %edx
  38:	84 04 83             	test   %al,(%ebx,%eax,4)
  3b:	03                   	.byte 0x3

Disassembly of section .debug_str:

00000000 <.debug_str>:
   0:	47                   	inc    %edi
   1:	4e                   	dec    %esi
   2:	55                   	push   %ebp
   3:	20 43 20             	and    %al,0x20(%ebx)
   6:	34 2e                	xor    $0x2e,%al
   8:	31 2e                	xor    %ebp,(%esi)
   a:	32 20                	xor    (%eax),%ah
   c:	32 30                	xor    (%eax),%dh
   e:	30 36                	xor    %dh,(%esi)
  10:	30 39                	xor    %bh,(%ecx)
  12:	32 38                	xor    (%eax),%bh
  14:	20 28                	and    %ch,(%eax)
  16:	70 72                	jo     8a <_init-0x804875a>
  18:	65                   	gs
  19:	72 65                	jb     80 <_init-0x8048764>
  1b:	6c                   	insb   (%dx),%es:(%edi)
  1c:	65                   	gs
  1d:	61                   	popa   
  1e:	73 65                	jae    85 <_init-0x804875f>
  20:	29 20                	sub    %esp,(%eax)
  22:	28 55 62             	sub    %dl,0x62(%ebp)
  25:	75 6e                	jne    95 <_init-0x804874f>
  27:	74 75                	je     9e <_init-0x8048746>
  29:	20 34 2e             	and    %dh,(%esi,%ebp,1)
  2c:	31 2e                	xor    %ebp,(%esi)
  2e:	31 2d 31 33 75 62    	xor    %ebp,0x62753331
  34:	75 6e                	jne    a4 <_init-0x8048740>
  36:	74 75                	je     ad <_init-0x8048737>
  38:	35 29 00 69 6e       	xor    $0x6e690029,%eax
  3d:	69 74 2e 63 00 73 68 	imul   $0x6f687300,0x63(%esi,%ebp,1),%esi
  44:	6f 
  45:	72 74                	jb     bb <_init-0x8048729>
  47:	20 69 6e             	and    %ch,0x6e(%ecx)
  4a:	74 00                	je     4c <_init-0x8048798>
  4c:	6c                   	insb   (%dx),%es:(%edi)
  4d:	6f                   	outsl  %ds:(%esi),(%dx)
  4e:	6e                   	outsb  %ds:(%esi),(%dx)
  4f:	67 20 6c 6f          	addr16 and %ch,0x6f(%si)
  53:	6e                   	outsb  %ds:(%esi),(%dx)
  54:	67 20 69 6e          	addr16 and %ch,0x6e(%bx,%di)
  58:	74 00                	je     5a <_init-0x804878a>
  5a:	75 6e                	jne    ca <_init-0x804871a>
  5c:	73 69                	jae    c7 <_init-0x804871d>
  5e:	67 6e                	addr16 outsb %ds:(%si),(%dx)
  60:	65 64 20 63 68       	and    %ah,%fs:%gs:0x68(%ebx)
  65:	61                   	popa   
  66:	72 00                	jb     68 <_init-0x804877c>
  68:	6c                   	insb   (%dx),%es:(%edi)
  69:	6f                   	outsl  %ds:(%esi),(%dx)
  6a:	6e                   	outsb  %ds:(%esi),(%dx)
  6b:	67 20 6c 6f          	addr16 and %ch,0x6f(%si)
  6f:	6e                   	outsb  %ds:(%esi),(%dx)
  70:	67 20 75 6e          	addr16 and %dh,0x6e(%di)
  74:	73 69                	jae    df <_init-0x8048705>
  76:	67 6e                	addr16 outsb %ds:(%si),(%dx)
  78:	65 64 20 69 6e       	and    %ch,%fs:%gs:0x6e(%ecx)
  7d:	74 00                	je     7f <_init-0x8048765>
  7f:	73 68                	jae    e9 <_init-0x80486fb>
  81:	6f                   	outsl  %ds:(%esi),(%dx)
  82:	72 74                	jb     f8 <_init-0x80486ec>
  84:	20 75 6e             	and    %dh,0x6e(%ebp)
  87:	73 69                	jae    f2 <_init-0x80486f2>
  89:	67 6e                	addr16 outsb %ds:(%si),(%dx)
  8b:	65 64 20 69 6e       	and    %ch,%fs:%gs:0x6e(%ecx)
  90:	74 00                	je     92 <_init-0x8048752>
  92:	5f                   	pop    %edi
  93:	49                   	dec    %ecx
  94:	4f                   	dec    %edi
  95:	5f                   	pop    %edi
  96:	73 74                	jae    10c <_init-0x80486d8>
  98:	64 69 6e 5f 75 73 65 	imul   $0x64657375,%fs:0x5f(%esi),%ebp
  9f:	64 
  a0:	00 2f                	add    %ch,(%edi)
  a2:	62 75 69             	bound  %esi,0x69(%ebp)
  a5:	6c                   	insb   (%dx),%es:(%edi)
  a6:	64                   	fs
  a7:	2f                   	das    
  a8:	62 75 69             	bound  %esi,0x69(%ebp)
  ab:	6c                   	insb   (%dx),%es:(%edi)
  ac:	64                   	fs
  ad:	64                   	fs
  ae:	2f                   	das    
  af:	67 6c                	addr16 insb (%dx),%es:(%di)
  b1:	69 62 63 2d 32 2e 34 	imul   $0x342e322d,0x63(%edx),%esp
  b8:	2f                   	das    
  b9:	62 75 69             	bound  %esi,0x69(%ebp)
  bc:	6c                   	insb   (%dx),%es:(%edi)
  bd:	64                   	fs
  be:	2d 74 72 65 65       	sub    $0x65657274,%eax
  c3:	2f                   	das    
  c4:	67 6c                	addr16 insb (%dx),%es:(%di)
  c6:	69 62 63 2d 32 2e 34 	imul   $0x342e322d,0x63(%edx),%esp
  cd:	2f                   	das    
  ce:	63 73 75             	arpl   %si,0x75(%ebx)
  d1:	00 5f 5f             	add    %bl,0x5f(%edi)
  d4:	6f                   	outsl  %ds:(%esi),(%dx)
  d5:	66 66 5f             	pop    %di
  d8:	74 00                	je     da <_init-0x804870a>
  da:	5f                   	pop    %edi
  db:	49                   	dec    %ecx
  dc:	4f                   	dec    %edi
  dd:	5f                   	pop    %edi
  de:	72 65                	jb     145 <_init-0x804869f>
  e0:	61                   	popa   
  e1:	64                   	fs
  e2:	5f                   	pop    %edi
  e3:	70 74                	jo     159 <_init-0x804868b>
  e5:	72 00                	jb     e7 <_init-0x80486fd>
  e7:	5f                   	pop    %edi
  e8:	63 68 61             	arpl   %bp,0x61(%eax)
  eb:	69 6e 00 73 69 7a 65 	imul   $0x657a6973,0x0(%esi),%ebp
  f2:	5f                   	pop    %edi
  f3:	74 00                	je     f5 <_init-0x80486ef>
  f5:	5f                   	pop    %edi
  f6:	73 68                	jae    160 <_init-0x8048684>
  f8:	6f                   	outsl  %ds:(%esi),(%dx)
  f9:	72 74                	jb     16f <_init-0x8048675>
  fb:	62 75 66             	bound  %esi,0x66(%ebp)
  fe:	00 5f 49             	add    %bl,0x49(%edi)
 101:	4f                   	dec    %edi
 102:	5f                   	pop    %edi
 103:	62 75 66             	bound  %esi,0x66(%ebp)
 106:	5f                   	pop    %edi
 107:	62 61 73             	bound  %esp,0x73(%ecx)
 10a:	65 00 73 74          	add    %dh,%gs:0x74(%ebx)
 10e:	64 6f                	outsl  %fs:(%esi),(%dx)
 110:	75 74                	jne    186 <_init-0x804865e>
 112:	00 5f 66             	add    %bl,0x66(%edi)
 115:	69 6c 65 6e 6f 00 5f 	imul   $0x495f006f,0x6e(%ebp,%eiz,2),%ebp
 11c:	49 
 11d:	4f                   	dec    %edi
 11e:	5f                   	pop    %edi
 11f:	72 65                	jb     186 <_init-0x804865e>
 121:	61                   	popa   
 122:	64                   	fs
 123:	5f                   	pop    %edi
 124:	65 6e                	outsb  %gs:(%esi),(%dx)
 126:	64 00 5f 66          	add    %bl,%fs:0x66(%edi)
 12a:	6c                   	insb   (%dx),%es:(%edi)
 12b:	61                   	popa   
 12c:	67 73 00             	addr16 jae 12f <_init-0x80486b5>
 12f:	5f                   	pop    %edi
 130:	49                   	dec    %ecx
 131:	4f                   	dec    %edi
 132:	5f                   	pop    %edi
 133:	62 75 66             	bound  %esi,0x66(%ebp)
 136:	5f                   	pop    %edi
 137:	65 6e                	outsb  %gs:(%esi),(%dx)
 139:	64 00 5f 63          	add    %bl,%fs:0x63(%edi)
 13d:	75 72                	jne    1b1 <_init-0x8048633>
 13f:	5f                   	pop    %edi
 140:	63 6f 6c             	arpl   %bp,0x6c(%edi)
 143:	75 6d                	jne    1b2 <_init-0x8048632>
 145:	6e                   	outsb  %ds:(%esi),(%dx)
 146:	00 5f 5f             	add    %bl,0x5f(%edi)
 149:	71 75                	jno    1c0 <_init-0x8048624>
 14b:	61                   	popa   
 14c:	64                   	fs
 14d:	5f                   	pop    %edi
 14e:	74 00                	je     150 <_init-0x8048694>
 150:	5f                   	pop    %edi
 151:	6f                   	outsl  %ds:(%esi),(%dx)
 152:	6c                   	insb   (%dx),%es:(%edi)
 153:	64                   	fs
 154:	5f                   	pop    %edi
 155:	6f                   	outsl  %ds:(%esi),(%dx)
 156:	66                   	data16
 157:	66                   	data16
 158:	73 65                	jae    1bf <_init-0x8048625>
 15a:	74 00                	je     15c <_init-0x8048688>
 15c:	5f                   	pop    %edi
 15d:	5f                   	pop    %edi
 15e:	70 61                	jo     1c1 <_init-0x8048623>
 160:	64                   	fs
 161:	34 00                	xor    $0x0,%al
 163:	5f                   	pop    %edi
 164:	49                   	dec    %ecx
 165:	4f                   	dec    %edi
 166:	5f                   	pop    %edi
 167:	6d                   	insl   (%dx),%es:(%edi)
 168:	61                   	popa   
 169:	72 6b                	jb     1d6 <_init-0x804860e>
 16b:	65                   	gs
 16c:	72 00                	jb     16e <_init-0x8048676>
 16e:	73 74                	jae    1e4 <_init-0x8048600>
 170:	64 69 6e 00 5f 49 4f 	imul   $0x5f4f495f,%fs:0x0(%esi),%ebp
 177:	5f 
 178:	77 72                	ja     1ec <_init-0x80485f8>
 17a:	69 74 65 5f 70 74 72 	imul   $0x727470,0x5f(%ebp,%eiz,2),%esi
 181:	00 
 182:	69 6e 66 69 6c 65 00 	imul   $0x656c69,0x66(%esi),%ebp
 189:	5f                   	pop    %edi
 18a:	6c                   	insb   (%dx),%es:(%edi)
 18b:	6f                   	outsl  %ds:(%esi),(%dx)
 18c:	63 6b 00             	arpl   %bp,0x0(%ebx)
 18f:	5f                   	pop    %edi
 190:	66                   	data16
 191:	6c                   	insb   (%dx),%es:(%edi)
 192:	61                   	popa   
 193:	67 73 32             	addr16 jae 1c8 <_init-0x804861c>
 196:	00 5f 6d             	add    %bl,0x6d(%edi)
 199:	6f                   	outsl  %ds:(%esi),(%dx)
 19a:	64 65 00 5f 49       	add    %bl,%fs:%gs:0x49(%edi)
 19f:	4f                   	dec    %edi
 1a0:	5f                   	pop    %edi
 1a1:	73 61                	jae    204 <_init-0x80485e0>
 1a3:	76 65                	jbe    20a <_init-0x80485da>
 1a5:	5f                   	pop    %edi
 1a6:	62 61 73             	bound  %esp,0x73(%ecx)
 1a9:	65 00 2f             	add    %ch,%gs:(%edi)
 1ac:	68 6f 6d 65 2f       	push   $0x2f656d6f
 1b1:	62 6f 6d             	bound  %ebp,0x6d(%edi)
 1b4:	62 2f                	bound  %ebp,(%edi)
 1b6:	62 6f 6d             	bound  %ebp,0x6d(%edi)
 1b9:	62 6c 61 62          	bound  %ebp,0x62(%ecx,%eiz,2)
 1bd:	2f                   	das    
 1be:	73 72                	jae    232 <_init-0x80485b2>
 1c0:	63 00                	arpl   %ax,(%eax)
 1c2:	5f                   	pop    %edi
 1c3:	49                   	dec    %ecx
 1c4:	4f                   	dec    %edi
 1c5:	5f                   	pop    %edi
 1c6:	77 72                	ja     23a <_init-0x80485aa>
 1c8:	69 74 65 5f 65 6e 64 	imul   $0x646e65,0x5f(%ebp,%eiz,2),%esi
 1cf:	00 
 1d0:	5f                   	pop    %edi
 1d1:	49                   	dec    %ecx
 1d2:	4f                   	dec    %edi
 1d3:	5f                   	pop    %edi
 1d4:	6c                   	insb   (%dx),%es:(%edi)
 1d5:	6f                   	outsl  %ds:(%esi),(%dx)
 1d6:	63 6b 5f             	arpl   %bp,0x5f(%ebx)
 1d9:	74 00                	je     1db <_init-0x8048609>
 1db:	5f                   	pop    %edi
 1dc:	49                   	dec    %ecx
 1dd:	4f                   	dec    %edi
 1de:	5f                   	pop    %edi
 1df:	46                   	inc    %esi
 1e0:	49                   	dec    %ecx
 1e1:	4c                   	dec    %esp
 1e2:	45                   	inc    %ebp
 1e3:	00 5f 70             	add    %bl,0x70(%edi)
 1e6:	6f                   	outsl  %ds:(%esi),(%dx)
 1e7:	73 00                	jae    1e9 <_init-0x80485fb>
 1e9:	5f                   	pop    %edi
 1ea:	6d                   	insl   (%dx),%es:(%edi)
 1eb:	61                   	popa   
 1ec:	72 6b                	jb     259 <_init-0x804858b>
 1ee:	65                   	gs
 1ef:	72 73                	jb     264 <_init-0x8048580>
 1f1:	00 5f 76             	add    %bl,0x76(%edi)
 1f4:	74 61                	je     257 <_init-0x804858d>
 1f6:	62 6c 65 5f          	bound  %ebp,0x5f(%ebp,%eiz,2)
 1fa:	6f                   	outsl  %ds:(%esi),(%dx)
 1fb:	66                   	data16
 1fc:	66                   	data16
 1fd:	73 65                	jae    264 <_init-0x8048580>
 1ff:	74 00                	je     201 <_init-0x80485e3>
 201:	62 6f 6d             	bound  %ebp,0x6d(%edi)
 204:	62 2e                	bound  %ebp,(%esi)
 206:	63 00                	arpl   %ax,(%eax)
 208:	69 6e 70 75 74 00 5f 	imul   $0x5f007475,0x70(%esi),%ebp
 20f:	6e                   	outsb  %ds:(%esi),(%dx)
 210:	65                   	gs
 211:	78 74                	js     287 <_init-0x804855d>
 213:	00 5f 5f             	add    %bl,0x5f(%edi)
 216:	6f                   	outsl  %ds:(%esi),(%dx)
 217:	66                   	data16
 218:	66                   	data16
 219:	36                   	ss
 21a:	34 5f                	xor    $0x5f,%al
 21c:	74 00                	je     21e <_init-0x80485c6>
 21e:	5f                   	pop    %edi
 21f:	49                   	dec    %ecx
 220:	4f                   	dec    %edi
 221:	5f                   	pop    %edi
 222:	72 65                	jb     289 <_init-0x804855b>
 224:	61                   	popa   
 225:	64                   	fs
 226:	5f                   	pop    %edi
 227:	62 61 73             	bound  %esp,0x73(%ecx)
 22a:	65 00 5f 49          	add    %bl,%gs:0x49(%edi)
 22e:	4f                   	dec    %edi
 22f:	5f                   	pop    %edi
 230:	73 61                	jae    293 <_init-0x8048551>
 232:	76 65                	jbe    299 <_init-0x804854b>
 234:	5f                   	pop    %edi
 235:	65 6e                	outsb  %gs:(%esi),(%dx)
 237:	64 00 5f 5f          	add    %bl,%fs:0x5f(%edi)
 23b:	70 61                	jo     29e <_init-0x8048546>
 23d:	64 31 00             	xor    %eax,%fs:(%eax)
 240:	5f                   	pop    %edi
 241:	5f                   	pop    %edi
 242:	70 61                	jo     2a5 <_init-0x804853f>
 244:	64 32 00             	xor    %fs:(%eax),%al
 247:	5f                   	pop    %edi
 248:	5f                   	pop    %edi
 249:	70 61                	jo     2ac <_init-0x8048538>
 24b:	64 33 00             	xor    %fs:(%eax),%eax
 24e:	5f                   	pop    %edi
 24f:	5f                   	pop    %edi
 250:	70 61                	jo     2b3 <_init-0x8048531>
 252:	64                   	fs
 253:	35 00 5f 75 6e       	xor    $0x6e755f00,%eax
 258:	75 73                	jne    2cd <_init-0x8048517>
 25a:	65 64 32 00          	xor    %fs:%gs:(%eax),%al
 25e:	61                   	popa   
 25f:	72 67                	jb     2c8 <_init-0x804851c>
 261:	76 00                	jbe    263 <_init-0x8048581>
 263:	5f                   	pop    %edi
 264:	49                   	dec    %ecx
 265:	4f                   	dec    %edi
 266:	5f                   	pop    %edi
 267:	62 61 63             	bound  %esp,0x63(%ecx)
 26a:	6b 75 70 5f          	imul   $0x5f,0x70(%ebp),%esi
 26e:	62 61 73             	bound  %esp,0x73(%ecx)
 271:	65 00 61 72          	add    %ah,%gs:0x72(%ecx)
 275:	67 63 00             	addr16 arpl %ax,(%bx,%si)
 278:	6d                   	insl   (%dx),%es:(%edi)
 279:	61                   	popa   
 27a:	69 6e 00 5f 49 4f 5f 	imul   $0x5f4f495f,0x0(%esi),%ebp
 281:	77 72                	ja     2f5 <_init-0x80484ef>
 283:	69 74 65 5f 62 61 73 	imul   $0x65736162,0x5f(%ebp,%eiz,2),%esi
 28a:	65 
 28b:	00 5f 73             	add    %bl,0x73(%edi)
 28e:	62 75 66             	bound  %esi,0x66(%ebp)
	...

Disassembly of section .debug_loc:

00000000 <.debug_loc>:
   0:	00 00                	add    %al,(%eax)
   2:	00 00                	add    %al,(%eax)
   4:	04 00                	add    $0x0,%al
   6:	00 00                	add    %al,(%eax)
   8:	02 00                	add    (%eax),%al
   a:	74 04                	je     10 <_init-0x80487d4>
   c:	04 00                	add    $0x0,%al
   e:	00 00                	add    %al,(%eax)
  10:	0a 00                	or     (%eax),%al
  12:	00 00                	add    %al,(%eax)
  14:	01 00                	add    %eax,(%eax)
  16:	51                   	push   %ecx
  17:	0a 00                	or     (%eax),%al
  19:	00 00                	add    %al,(%eax)
  1b:	0b 00                	or     (%eax),%eax
  1d:	00 00                	add    %al,(%eax)
  1f:	02 00                	add    (%eax),%al
  21:	74 04                	je     27 <_init-0x80487bd>
  23:	0b 00                	or     (%eax),%eax
  25:	00 00                	add    %al,(%eax)
  27:	0d 00 00 00 02       	or     $0x2000000,%eax
  2c:	00 74 08 0d          	add    %dh,0xd(%eax,%ecx,1)
  30:	00 00                	add    %al,(%eax)
  32:	00 60 01             	add    %ah,0x1(%eax)
  35:	00 00                	add    %al,(%eax)
  37:	02 00                	add    (%eax),%al
  39:	75 08                	jne    43 <_init-0x80487a1>
	...
  47:	1c 00                	sbb    $0x0,%al
  49:	00 00                	add    %al,(%eax)
  4b:	02 00                	add    (%eax),%al
  4d:	71 00                	jno    4f <_init-0x8048795>
  4f:	1c 00                	sbb    $0x0,%al
  51:	00 00                	add    %al,(%eax)
  53:	21 00                	and    %eax,(%eax)
  55:	00 00                	add    %al,(%eax)
  57:	01 00                	add    %eax,(%eax)
  59:	50                   	push   %eax
  5a:	21 00                	and    %eax,(%eax)
  5c:	00 00                	add    %al,(%eax)
  5e:	28 00                	sub    %al,(%eax)
  60:	00 00                	add    %al,(%eax)
  62:	02 00                	add    (%eax),%al
  64:	71 00                	jno    66 <_init-0x804877e>
  66:	28 00                	sub    %al,(%eax)
  68:	00 00                	add    %al,(%eax)
  6a:	38 00                	cmp    %al,(%eax)
  6c:	00 00                	add    %al,(%eax)
  6e:	01 00                	add    %eax,(%eax)
  70:	50                   	push   %eax
  71:	38 00                	cmp    %al,(%eax)
  73:	00 00                	add    %al,(%eax)
  75:	6e                   	outsb  %ds:(%esi),(%dx)
  76:	00 00                	add    %al,(%eax)
  78:	00 02                	add    %al,(%edx)
  7a:	00 71 00             	add    %dh,0x0(%ecx)
  7d:	6e                   	outsb  %ds:(%esi),(%dx)
  7e:	00 00                	add    %al,(%eax)
  80:	00 70 00             	add    %dh,0x0(%eax)
  83:	00 00                	add    %al,(%eax)
  85:	01 00                	add    %eax,(%eax)
  87:	50                   	push   %eax
  88:	70 00                	jo     8a <_init-0x804875a>
  8a:	00 00                	add    %al,(%eax)
  8c:	60                   	pusha  
  8d:	01 00                	add    %eax,(%eax)
  8f:	00 02                	add    %al,(%edx)
  91:	00 71 00             	add    %dh,0x0(%ecx)
	...
  a0:	1c 00                	sbb    $0x0,%al
  a2:	00 00                	add    %al,(%eax)
  a4:	02 00                	add    (%eax),%al
  a6:	71 04                	jno    ac <_init-0x8048738>
  a8:	1c 00                	sbb    $0x0,%al
  aa:	00 00                	add    %al,(%eax)
  ac:	5b                   	pop    %ebx
  ad:	01 00                	add    %eax,(%eax)
  af:	00 01                	add    %al,(%ecx)
  b1:	00 53 5b             	add    %dl,0x5b(%ebx)
  b4:	01 00                	add    %eax,(%eax)
  b6:	00 60 01             	add    %ah,0x1(%eax)
  b9:	00 00                	add    %al,(%eax)
  bb:	02 00                	add    (%eax),%al
  bd:	71 04                	jno    c3 <_init-0x8048721>
	...
  c7:	ae                   	scas   %es:(%edi),%al
  c8:	00 00                	add    %al,(%eax)
  ca:	00 b6 00 00 00 01    	add    %dh,0x1000000(%esi)
  d0:	00 50 cc             	add    %dl,-0x34(%eax)
  d3:	00 00                	add    %al,(%eax)
  d5:	00 d4                	add    %dl,%ah
  d7:	00 00                	add    %al,(%eax)
  d9:	00 01                	add    %al,(%ecx)
  db:	00 50 ea             	add    %dl,-0x16(%eax)
  de:	00 00                	add    %al,(%eax)
  e0:	00 f2                	add    %dh,%dl
  e2:	00 00                	add    %al,(%eax)
  e4:	00 01                	add    %al,(%ecx)
  e6:	00 50 08             	add    %dl,0x8(%eax)
  e9:	01 00                	add    %eax,(%eax)
  eb:	00 10                	add    %dl,(%eax)
  ed:	01 00                	add    %eax,(%eax)
  ef:	00 01                	add    %al,(%ecx)
  f1:	00 50 26             	add    %dl,0x26(%eax)
  f4:	01 00                	add    %eax,(%eax)
  f6:	00 2e                	add    %ch,(%esi)
  f8:	01 00                	add    %eax,(%eax)
  fa:	00 01                	add    %al,(%ecx)
  fc:	00 50 44             	add    %dl,0x44(%eax)
  ff:	01 00                	add    %eax,(%eax)
 101:	00 4c 01 00          	add    %cl,0x0(%ecx,%eax,1)
 105:	00 01                	add    %al,(%ecx)
 107:	00 50 00             	add    %dl,0x0(%eax)
 10a:	00 00                	add    %al,(%eax)
 10c:	00 00                	add    %al,(%eax)
 10e:	00 00                	add    %al,(%eax)
	...
